
Jardim_Inteligente.elf:     file format elf32-avr

Sections:
Idx Name          Size      VMA       LMA       File off  Algn
  0 .data         000000d6  00800100  0000233c  000023d0  2**0
                  CONTENTS, ALLOC, LOAD, DATA
  1 .text         0000233c  00000000  00000000  00000094  2**1
                  CONTENTS, ALLOC, LOAD, READONLY, CODE
  2 .bss          00000286  008001d6  008001d6  000024a6  2**0
                  ALLOC
  3 .comment      0000005c  00000000  00000000  000024a6  2**0
                  CONTENTS, READONLY
  4 .note.gnu.avr.deviceinfo 00000040  00000000  00000000  00002504  2**2
                  CONTENTS, READONLY
  5 .debug_aranges 000002f0  00000000  00000000  00002548  2**3
                  CONTENTS, READONLY, DEBUGGING
  6 .debug_info   0000340e  00000000  00000000  00002838  2**0
                  CONTENTS, READONLY, DEBUGGING
  7 .debug_abbrev 0000100c  00000000  00000000  00005c46  2**0
                  CONTENTS, READONLY, DEBUGGING
  8 .debug_line   00001910  00000000  00000000  00006c52  2**0
                  CONTENTS, READONLY, DEBUGGING
  9 .debug_frame  000007f0  00000000  00000000  00008564  2**2
                  CONTENTS, READONLY, DEBUGGING
 10 .debug_str    00001045  00000000  00000000  00008d54  2**0
                  CONTENTS, READONLY, DEBUGGING
 11 .debug_loc    00001757  00000000  00000000  00009d99  2**0
                  CONTENTS, READONLY, DEBUGGING
 12 .debug_ranges 00000240  00000000  00000000  0000b4f0  2**0
                  CONTENTS, READONLY, DEBUGGING

Disassembly of section .text:

00000000 <__vectors>:
       0:	0c 94 24 01 	jmp	0x248	; 0x248 <__ctors_end>
       4:	0c 94 41 01 	jmp	0x282	; 0x282 <__bad_interrupt>
       8:	0c 94 41 01 	jmp	0x282	; 0x282 <__bad_interrupt>
       c:	0c 94 e3 01 	jmp	0x3c6	; 0x3c6 <__vector_3>
      10:	0c 94 41 01 	jmp	0x282	; 0x282 <__bad_interrupt>
      14:	0c 94 46 01 	jmp	0x28c	; 0x28c <__vector_5>
      18:	0c 94 41 01 	jmp	0x282	; 0x282 <__bad_interrupt>
      1c:	0c 94 41 01 	jmp	0x282	; 0x282 <__bad_interrupt>
      20:	0c 94 41 01 	jmp	0x282	; 0x282 <__bad_interrupt>
      24:	0c 94 41 01 	jmp	0x282	; 0x282 <__bad_interrupt>
      28:	0c 94 41 01 	jmp	0x282	; 0x282 <__bad_interrupt>
      2c:	0c 94 41 01 	jmp	0x282	; 0x282 <__bad_interrupt>
      30:	0c 94 41 01 	jmp	0x282	; 0x282 <__bad_interrupt>
      34:	0c 94 41 01 	jmp	0x282	; 0x282 <__bad_interrupt>
      38:	0c 94 41 01 	jmp	0x282	; 0x282 <__bad_interrupt>
      3c:	0c 94 41 01 	jmp	0x282	; 0x282 <__bad_interrupt>
      40:	0c 94 46 0c 	jmp	0x188c	; 0x188c <__vector_16>
      44:	0c 94 41 01 	jmp	0x282	; 0x282 <__bad_interrupt>
      48:	0c 94 41 01 	jmp	0x282	; 0x282 <__bad_interrupt>
      4c:	0c 94 41 01 	jmp	0x282	; 0x282 <__bad_interrupt>
      50:	0c 94 41 01 	jmp	0x282	; 0x282 <__bad_interrupt>
      54:	0c 94 4d 02 	jmp	0x49a	; 0x49a <__vector_21>
      58:	0c 94 41 01 	jmp	0x282	; 0x282 <__bad_interrupt>
      5c:	0c 94 41 01 	jmp	0x282	; 0x282 <__bad_interrupt>
      60:	0c 94 41 01 	jmp	0x282	; 0x282 <__bad_interrupt>
      64:	0c 94 41 01 	jmp	0x282	; 0x282 <__bad_interrupt>

00000068 <CHARSET>:
      68:	00 00 00 00 00 00 00 5f 00 00 00 07 00 07 00 14     ......._........
      78:	7f 14 7f 14 24 2a 7f 2a 12 23 13 08 64 62 36 49     ....$*.*.#..db6I
      88:	55 22 50 00 05 03 00 00 00 1c 22 41 00 00 41 22     U"P......."A..A"
      98:	1c 00 14 08 3e 08 14 08 08 3e 08 08 00 50 30 00     ....>....>...P0.
      a8:	00 08 08 08 08 08 00 60 60 00 00 20 10 08 04 02     .......``.. ....
      b8:	3e 51 49 45 3e 00 42 7f 40 00 42 61 51 49 46 21     >QIE>.B.@.BaQIF!
      c8:	41 45 4b 31 18 14 12 7f 10 27 45 45 45 39 3c 4a     AEK1.....'EEE9<J
      d8:	49 49 30 01 71 09 05 03 36 49 49 49 36 06 49 49     II0.q...6III6.II
      e8:	29 1e 00 36 36 00 00 00 56 36 00 00 08 14 22 41     )..66...V6...."A
      f8:	00 14 14 14 14 14 00 41 22 14 08 02 01 51 09 06     .......A"....Q..
     108:	32 49 79 41 3e 7e 11 11 11 7e 7f 49 49 49 36 3e     2IyA>~...~.III6>
     118:	41 41 41 22 7f 41 41 22 1c 7f 49 49 49 41 7f 09     AAA".AA"..IIIA..
     128:	09 09 01 3e 41 49 49 7a 7f 08 08 08 7f 00 41 7f     ...>AIIz......A.
     138:	41 00 20 40 41 3f 01 7f 08 14 22 41 7f 40 40 40     A. @A?...."A.@@@
     148:	40 7f 02 0c 02 7f 7f 04 08 10 7f 3e 41 41 41 3e     @..........>AAA>
     158:	7f 09 09 09 06 3e 41 51 21 5e 7f 09 19 29 46 46     .....>AQ!^...)FF
     168:	49 49 49 31 01 01 7f 01 01 3f 40 40 40 3f 1f 20     III1.....?@@@?. 
     178:	40 20 1f 3f 40 38 40 3f 63 14 08 14 63 07 08 70     @ .?@8@?c...c..p
     188:	08 07 61 51 49 45 43 00 7f 41 41 00 02 04 08 10     ..aQIEC..AA.....
     198:	20 00 41 41 7f 00 04 02 01 02 04 40 40 40 40 40      .AA.......@@@@@
     1a8:	00 01 02 04 00 20 54 54 54 78 7f 48 44 44 38 38     ..... TTTx.HDD88
     1b8:	44 44 44 20 38 44 44 48 7f 38 54 54 54 18 08 7e     DDD 8DDH.8TTT..~
     1c8:	09 01 02 0c 52 52 52 3e 7f 08 04 04 78 00 44 7d     ....RRR>....x.D}
     1d8:	40 00 20 40 44 3d 00 7f 10 28 44 00 00 41 7f 40     @. @D=...(D..A.@
     1e8:	00 7c 04 18 04 78 7c 08 04 04 78 38 44 44 44 38     .|...x|...x8DDD8
     1f8:	7c 14 14 14 08 08 14 14 18 7c 7c 08 04 04 08 48     |........||....H
     208:	54 54 54 20 04 3f 44 40 20 3c 40 40 20 7c 1c 20     TTT .?D@ <@@ |. 
     218:	40 20 1c 3c 40 30 40 3c 44 28 10 28 44 0c 50 50     @ .<@0@<D(.(D.PP
     228:	50 3c 44 64 54 4c 44 00 08 36 41 00 00 00 7f 00     P<DdTLD..6A.....
     238:	00 00 41 36 08 00 10 08 08 10 08 00 00 00 00 00     ..A6............

00000248 <__ctors_end>:
     248:	11 24       	eor	r1, r1
     24a:	1f be       	out	0x3f, r1	; 63
     24c:	cf ef       	ldi	r28, 0xFF	; 255
     24e:	d8 e0       	ldi	r29, 0x08	; 8
     250:	de bf       	out	0x3e, r29	; 62
     252:	cd bf       	out	0x3d, r28	; 61

00000254 <__do_copy_data>:
     254:	11 e0       	ldi	r17, 0x01	; 1
     256:	a0 e0       	ldi	r26, 0x00	; 0
     258:	b1 e0       	ldi	r27, 0x01	; 1
     25a:	ec e3       	ldi	r30, 0x3C	; 60
     25c:	f3 e2       	ldi	r31, 0x23	; 35
     25e:	02 c0       	rjmp	.+4      	; 0x264 <__do_copy_data+0x10>
     260:	05 90       	lpm	r0, Z+
     262:	0d 92       	st	X+, r0
     264:	a6 3d       	cpi	r26, 0xD6	; 214
     266:	b1 07       	cpc	r27, r17
     268:	d9 f7       	brne	.-10     	; 0x260 <__do_copy_data+0xc>

0000026a <__do_clear_bss>:
     26a:	24 e0       	ldi	r18, 0x04	; 4
     26c:	a6 ed       	ldi	r26, 0xD6	; 214
     26e:	b1 e0       	ldi	r27, 0x01	; 1
     270:	01 c0       	rjmp	.+2      	; 0x274 <.do_clear_bss_start>

00000272 <.do_clear_bss_loop>:
     272:	1d 92       	st	X+, r1

00000274 <.do_clear_bss_start>:
     274:	ac 35       	cpi	r26, 0x5C	; 92
     276:	b2 07       	cpc	r27, r18
     278:	e1 f7       	brne	.-8      	; 0x272 <.do_clear_bss_loop>
     27a:	0e 94 26 02 	call	0x44c	; 0x44c <main>
     27e:	0c 94 9c 11 	jmp	0x2338	; 0x2338 <_exit>

00000282 <__bad_interrupt>:
     282:	0c 94 00 00 	jmp	0	; 0x0 <__vectors>

00000286 <atmel_start_init>:
/**
 * Initializes MCU, drivers and middleware in the project
 **/
void atmel_start_init(void)
{
	system_init();
     286:	0e 94 e4 02 	call	0x5c8	; 0x5c8 <system_init>
     28a:	08 95       	ret

0000028c <__vector_5>:
#include <driver_init.h>
#include <compiler.h>
#include "logic_functions.h"

ISR (PCINT2_vect)
{
     28c:	1f 92       	push	r1
     28e:	0f 92       	push	r0
     290:	0f b6       	in	r0, 0x3f	; 63
     292:	0f 92       	push	r0
     294:	11 24       	eor	r1, r1
     296:	2f 93       	push	r18
     298:	3f 93       	push	r19
     29a:	4f 93       	push	r20
     29c:	5f 93       	push	r21
     29e:	6f 93       	push	r22
     2a0:	7f 93       	push	r23
     2a2:	8f 93       	push	r24
     2a4:	9f 93       	push	r25
     2a6:	af 93       	push	r26
     2a8:	bf 93       	push	r27
     2aa:	cf 93       	push	r28
     2ac:	ef 93       	push	r30
     2ae:	ff 93       	push	r31
	uint8_t changedbits;
	changedbits = PIND ^ historico_da_porta.D;
     2b0:	c9 b1       	in	r28, 0x09	; 9
     2b2:	ec e1       	ldi	r30, 0x1C	; 28
     2b4:	f4 e0       	ldi	r31, 0x04	; 4
     2b6:	80 81       	ld	r24, Z
     2b8:	c8 27       	eor	r28, r24
	historico_da_porta.D = PIND;
     2ba:	89 b1       	in	r24, 0x09	; 9
     2bc:	80 83       	st	Z, r24

	if(changedbits & (1 << PIND2))
     2be:	c2 ff       	sbrs	r28, 2
     2c0:	24 c0       	rjmp	.+72     	; 0x30a <__vector_5+0x7e>
	{
		/* PCINT18 changed */
		temp_interrupcao.d2 += 1;
     2c2:	e6 ee       	ldi	r30, 0xE6	; 230
     2c4:	f3 e0       	ldi	r31, 0x03	; 3
     2c6:	80 81       	ld	r24, Z
     2c8:	8f 5f       	subi	r24, 0xFF	; 255
     2ca:	80 83       	st	Z, r24
		if ((temp_interrupcao.d2 == 2)&&( (TELA.pagina_atual==2)||(TELA.pagina_atual==3)
     2cc:	82 30       	cpi	r24, 0x02	; 2
     2ce:	e9 f4       	brne	.+58     	; 0x30a <__vector_5+0x7e>
     2d0:	80 91 56 04 	lds	r24, 0x0456	; 0x800456 <TELA>
     2d4:	9e ef       	ldi	r25, 0xFE	; 254
     2d6:	98 0f       	add	r25, r24
     2d8:	92 30       	cpi	r25, 0x02	; 2
     2da:	10 f0       	brcs	.+4      	; 0x2e0 <__vector_5+0x54>
		||(TELA.pagina_atual==5)) )
     2dc:	85 30       	cpi	r24, 0x05	; 5
     2de:	a9 f4       	brne	.+42     	; 0x30a <__vector_5+0x7e>
		{
			temp_interrupcao.d2 = 0;
     2e0:	10 92 e6 03 	sts	0x03E6, r1	; 0x8003e6 <temp_interrupcao>
			if (edicao.esta_editando == 0)
     2e4:	90 91 dd 03 	lds	r25, 0x03DD	; 0x8003dd <edicao>
     2e8:	91 11       	cpse	r25, r1
     2ea:	09 c0       	rjmp	.+18     	; 0x2fe <__vector_5+0x72>
			{
				edicao.esta_editando = 1;
     2ec:	ed ed       	ldi	r30, 0xDD	; 221
     2ee:	f3 e0       	ldi	r31, 0x03	; 3
     2f0:	91 e0       	ldi	r25, 0x01	; 1
     2f2:	90 83       	st	Z, r25
				edicao.esta_editando_radiacao_solar = 1;
     2f4:	93 83       	std	Z+3, r25	; 0x03
				edicao.tela_antiga = TELA.pagina_atual;
     2f6:	84 83       	std	Z+4, r24	; 0x04
				editar_valor();
     2f8:	0e 94 b1 05 	call	0xb62	; 0xb62 <editar_valor>
     2fc:	06 c0       	rjmp	.+12     	; 0x30a <__vector_5+0x7e>
				}else{
				if (edicao.esta_editando_radiacao_solar == 1)
     2fe:	80 91 e0 03 	lds	r24, 0x03E0	; 0x8003e0 <edicao+0x3>
     302:	81 30       	cpi	r24, 0x01	; 1
     304:	11 f4       	brne	.+4      	; 0x30a <__vector_5+0x7e>
				{
					salvar_valor();
     306:	0e 94 9f 07 	call	0xf3e	; 0xf3e <salvar_valor>
				}
			}
		}
	}
	
	if(changedbits & (1 << PIND3))
     30a:	c3 ff       	sbrs	r28, 3
     30c:	24 c0       	rjmp	.+72     	; 0x356 <__vector_5+0xca>
	{
		/* PCINT19 changed */
		temp_interrupcao.d3 += 1;
     30e:	e6 ee       	ldi	r30, 0xE6	; 230
     310:	f3 e0       	ldi	r31, 0x03	; 3
     312:	81 81       	ldd	r24, Z+1	; 0x01
     314:	8f 5f       	subi	r24, 0xFF	; 255
     316:	81 83       	std	Z+1, r24	; 0x01
		if ((temp_interrupcao.d3 == 2)&&( (TELA.pagina_atual==2)||(TELA.pagina_atual==3)
     318:	82 30       	cpi	r24, 0x02	; 2
     31a:	e9 f4       	brne	.+58     	; 0x356 <__vector_5+0xca>
     31c:	80 91 56 04 	lds	r24, 0x0456	; 0x800456 <TELA>
     320:	9e ef       	ldi	r25, 0xFE	; 254
     322:	98 0f       	add	r25, r24
     324:	92 30       	cpi	r25, 0x02	; 2
     326:	10 f0       	brcs	.+4      	; 0x32c <__vector_5+0xa0>
		||(TELA.pagina_atual==5)) )
     328:	85 30       	cpi	r24, 0x05	; 5
     32a:	a9 f4       	brne	.+42     	; 0x356 <__vector_5+0xca>
		{
			temp_interrupcao.d3 = 0;
     32c:	10 92 e7 03 	sts	0x03E7, r1	; 0x8003e7 <temp_interrupcao+0x1>
			if (edicao.esta_editando == 0)
     330:	90 91 dd 03 	lds	r25, 0x03DD	; 0x8003dd <edicao>
     334:	91 11       	cpse	r25, r1
     336:	09 c0       	rjmp	.+18     	; 0x34a <__vector_5+0xbe>
			{
				edicao.esta_editando = 1;
     338:	ed ed       	ldi	r30, 0xDD	; 221
     33a:	f3 e0       	ldi	r31, 0x03	; 3
     33c:	91 e0       	ldi	r25, 0x01	; 1
     33e:	90 83       	st	Z, r25
				edicao.esta_editando_temperatura = 1;
     340:	91 83       	std	Z+1, r25	; 0x01
				edicao.tela_antiga = TELA.pagina_atual;
     342:	84 83       	std	Z+4, r24	; 0x04
				editar_valor();
     344:	0e 94 b1 05 	call	0xb62	; 0xb62 <editar_valor>
     348:	06 c0       	rjmp	.+12     	; 0x356 <__vector_5+0xca>
				}else{
				if (edicao.esta_editando_temperatura == 1)
     34a:	80 91 de 03 	lds	r24, 0x03DE	; 0x8003de <edicao+0x1>
     34e:	81 30       	cpi	r24, 0x01	; 1
     350:	11 f4       	brne	.+4      	; 0x356 <__vector_5+0xca>
				{
					salvar_valor();
     352:	0e 94 9f 07 	call	0xf3e	; 0xf3e <salvar_valor>
				}
			}
		}
	}

	if(changedbits & (1 << PIND4))
     356:	c4 ff       	sbrs	r28, 4
     358:	24 c0       	rjmp	.+72     	; 0x3a2 <__vector_5+0x116>
	{
		/* PCINT20 changed */
		temp_interrupcao.d4 += 1;
     35a:	e6 ee       	ldi	r30, 0xE6	; 230
     35c:	f3 e0       	ldi	r31, 0x03	; 3
     35e:	82 81       	ldd	r24, Z+2	; 0x02
     360:	8f 5f       	subi	r24, 0xFF	; 255
     362:	82 83       	std	Z+2, r24	; 0x02
		if ((temp_interrupcao.d4 == 2)&&( (TELA.pagina_atual==2)||(TELA.pagina_atual==3)
     364:	82 30       	cpi	r24, 0x02	; 2
     366:	e9 f4       	brne	.+58     	; 0x3a2 <__vector_5+0x116>
     368:	80 91 56 04 	lds	r24, 0x0456	; 0x800456 <TELA>
     36c:	9e ef       	ldi	r25, 0xFE	; 254
     36e:	98 0f       	add	r25, r24
     370:	92 30       	cpi	r25, 0x02	; 2
     372:	10 f0       	brcs	.+4      	; 0x378 <__vector_5+0xec>
		||(TELA.pagina_atual==5)))
     374:	85 30       	cpi	r24, 0x05	; 5
     376:	a9 f4       	brne	.+42     	; 0x3a2 <__vector_5+0x116>
		{
			temp_interrupcao.d4 = 0;
     378:	10 92 e8 03 	sts	0x03E8, r1	; 0x8003e8 <temp_interrupcao+0x2>
			if (edicao.esta_editando == 0)
     37c:	90 91 dd 03 	lds	r25, 0x03DD	; 0x8003dd <edicao>
     380:	91 11       	cpse	r25, r1
     382:	09 c0       	rjmp	.+18     	; 0x396 <__vector_5+0x10a>
			{
				edicao.esta_editando = 1;
     384:	ed ed       	ldi	r30, 0xDD	; 221
     386:	f3 e0       	ldi	r31, 0x03	; 3
     388:	91 e0       	ldi	r25, 0x01	; 1
     38a:	90 83       	st	Z, r25
				edicao.esta_editando_umidade = 1;
     38c:	92 83       	std	Z+2, r25	; 0x02
				edicao.tela_antiga = TELA.pagina_atual;
     38e:	84 83       	std	Z+4, r24	; 0x04
				editar_valor();
     390:	0e 94 b1 05 	call	0xb62	; 0xb62 <editar_valor>
     394:	06 c0       	rjmp	.+12     	; 0x3a2 <__vector_5+0x116>
				}else{
				if (edicao.esta_editando_umidade == 1)
     396:	80 91 df 03 	lds	r24, 0x03DF	; 0x8003df <edicao+0x2>
     39a:	81 30       	cpi	r24, 0x01	; 1
     39c:	11 f4       	brne	.+4      	; 0x3a2 <__vector_5+0x116>
				{
					salvar_valor();
     39e:	0e 94 9f 07 	call	0xf3e	; 0xf3e <salvar_valor>
				}
			}
		}
	}
}
     3a2:	ff 91       	pop	r31
     3a4:	ef 91       	pop	r30
     3a6:	cf 91       	pop	r28
     3a8:	bf 91       	pop	r27
     3aa:	af 91       	pop	r26
     3ac:	9f 91       	pop	r25
     3ae:	8f 91       	pop	r24
     3b0:	7f 91       	pop	r23
     3b2:	6f 91       	pop	r22
     3b4:	5f 91       	pop	r21
     3b6:	4f 91       	pop	r20
     3b8:	3f 91       	pop	r19
     3ba:	2f 91       	pop	r18
     3bc:	0f 90       	pop	r0
     3be:	0f be       	out	0x3f, r0	; 63
     3c0:	0f 90       	pop	r0
     3c2:	1f 90       	pop	r1
     3c4:	18 95       	reti

000003c6 <__vector_3>:

ISR (PCINT0_vect)
{
     3c6:	1f 92       	push	r1
     3c8:	0f 92       	push	r0
     3ca:	0f b6       	in	r0, 0x3f	; 63
     3cc:	0f 92       	push	r0
     3ce:	11 24       	eor	r1, r1
     3d0:	2f 93       	push	r18
     3d2:	3f 93       	push	r19
     3d4:	4f 93       	push	r20
     3d6:	5f 93       	push	r21
     3d8:	6f 93       	push	r22
     3da:	7f 93       	push	r23
     3dc:	8f 93       	push	r24
     3de:	9f 93       	push	r25
     3e0:	af 93       	push	r26
     3e2:	bf 93       	push	r27
     3e4:	ef 93       	push	r30
     3e6:	ff 93       	push	r31
	uint8_t changedbits;
	changedbits = PINB ^ historico_da_porta.B;
     3e8:	93 b1       	in	r25, 0x03	; 3
     3ea:	ec e1       	ldi	r30, 0x1C	; 28
     3ec:	f4 e0       	ldi	r31, 0x04	; 4
     3ee:	81 81       	ldd	r24, Z+1	; 0x01
     3f0:	89 27       	eor	r24, r25
	historico_da_porta.B = PINB;
     3f2:	93 b1       	in	r25, 0x03	; 3
     3f4:	91 83       	std	Z+1, r25	; 0x01
	
	if(changedbits & (1 << PINB6))
     3f6:	86 ff       	sbrs	r24, 6
     3f8:	18 c0       	rjmp	.+48     	; 0x42a <__EEPROM_REGION_LENGTH__+0x2a>
	{
		/* PCINT6 changed */
		temp_interrupcao.b6 += 1;
     3fa:	e6 ee       	ldi	r30, 0xE6	; 230
     3fc:	f3 e0       	ldi	r31, 0x03	; 3
     3fe:	83 81       	ldd	r24, Z+3	; 0x03
     400:	8f 5f       	subi	r24, 0xFF	; 255
     402:	83 83       	std	Z+3, r24	; 0x03
		if (temp_interrupcao.b6 == 2)
     404:	82 30       	cpi	r24, 0x02	; 2
     406:	89 f4       	brne	.+34     	; 0x42a <__EEPROM_REGION_LENGTH__+0x2a>
		{
			temp_interrupcao.b6 = 0;
     408:	10 92 e9 03 	sts	0x03E9, r1	; 0x8003e9 <temp_interrupcao+0x3>
			if(edicao.esta_editando == 1){
     40c:	80 91 dd 03 	lds	r24, 0x03DD	; 0x8003dd <edicao>
     410:	81 30       	cpi	r24, 0x01	; 1
     412:	49 f4       	brne	.+18     	; 0x426 <__EEPROM_REGION_LENGTH__+0x26>
				TELA.pagina_atual = edicao.tela_antiga;
     414:	80 91 e1 03 	lds	r24, 0x03E1	; 0x8003e1 <edicao+0x4>
     418:	80 93 56 04 	sts	0x0456, r24	; 0x800456 <TELA>
				reset_edicao();
     41c:	0e 94 92 07 	call	0xf24	; 0xf24 <reset_edicao>
				atualizar_tela();
     420:	0e 94 fc 09 	call	0x13f8	; 0x13f8 <atualizar_tela>
     424:	02 c0       	rjmp	.+4      	; 0x42a <__EEPROM_REGION_LENGTH__+0x2a>
				}else{
				mudar_tela();
     426:	0e 94 9c 0a 	call	0x1538	; 0x1538 <mudar_tela>
			}
		}
	}
}
     42a:	ff 91       	pop	r31
     42c:	ef 91       	pop	r30
     42e:	bf 91       	pop	r27
     430:	af 91       	pop	r26
     432:	9f 91       	pop	r25
     434:	8f 91       	pop	r24
     436:	7f 91       	pop	r23
     438:	6f 91       	pop	r22
     43a:	5f 91       	pop	r21
     43c:	4f 91       	pop	r20
     43e:	3f 91       	pop	r19
     440:	2f 91       	pop	r18
     442:	0f 90       	pop	r0
     444:	0f be       	out	0x3f, r0	; 63
     446:	0f 90       	pop	r0
     448:	1f 90       	pop	r1
     44a:	18 95       	reti

0000044c <main>:
#include "logic_functions.h"

int main(void)
{
	/* Initializes MCU, drivers and middleware */
	atmel_start_init();
     44c:	0e 94 43 01 	call	0x286	; 0x286 <atmel_start_init>

	/* Replace with your application code */
	iniciar_sistema();
     450:	0e 94 ab 08 	call	0x1156	; 0x1156 <iniciar_sistema>
	while (1) {
		atualizar_tela();
     454:	0e 94 fc 09 	call	0x13f8	; 0x13f8 <atualizar_tela>
     458:	fd cf       	rjmp	.-6      	; 0x454 <main+0x8>

0000045a <ADC_0_init>:
 *
 * \return Nothing.
 */
void ADC_0_register_callback(adc_irq_cb_t f)
{
	ADC_0_cb = f;
     45a:	e4 e6       	ldi	r30, 0x64	; 100
     45c:	f0 e0       	ldi	r31, 0x00	; 0
     45e:	80 81       	ld	r24, Z
     460:	8e 7f       	andi	r24, 0xFE	; 254
     462:	80 83       	st	Z, r24
     464:	80 e4       	ldi	r24, 0x40	; 64
     466:	80 93 7c 00 	sts	0x007C, r24	; 0x80007c <__TEXT_REGION_LENGTH__+0x7f807c>
     46a:	8c e8       	ldi	r24, 0x8C	; 140
     46c:	80 93 7a 00 	sts	0x007A, r24	; 0x80007a <__TEXT_REGION_LENGTH__+0x7f807a>
     470:	10 92 7b 00 	sts	0x007B, r1	; 0x80007b <__TEXT_REGION_LENGTH__+0x7f807b>
     474:	8f e0       	ldi	r24, 0x0F	; 15
     476:	80 93 7e 00 	sts	0x007E, r24	; 0x80007e <__TEXT_REGION_LENGTH__+0x7f807e>
     47a:	80 e0       	ldi	r24, 0x00	; 0
     47c:	08 95       	ret

0000047e <ADC_0_start_conversion>:
     47e:	ec e7       	ldi	r30, 0x7C	; 124
     480:	f0 e0       	ldi	r31, 0x00	; 0
     482:	90 81       	ld	r25, Z
     484:	90 7f       	andi	r25, 0xF0	; 240
     486:	90 83       	st	Z, r25
     488:	90 81       	ld	r25, Z
     48a:	89 2b       	or	r24, r25
     48c:	80 83       	st	Z, r24
     48e:	ea e7       	ldi	r30, 0x7A	; 122
     490:	f0 e0       	ldi	r31, 0x00	; 0
     492:	80 81       	ld	r24, Z
     494:	80 64       	ori	r24, 0x40	; 64
     496:	80 83       	st	Z, r24
     498:	08 95       	ret

0000049a <__vector_21>:
}

ISR(ADC_vect)
{
     49a:	1f 92       	push	r1
     49c:	0f 92       	push	r0
     49e:	0f b6       	in	r0, 0x3f	; 63
     4a0:	0f 92       	push	r0
     4a2:	11 24       	eor	r1, r1
     4a4:	2f 93       	push	r18
     4a6:	8f 93       	push	r24
     4a8:	9f 93       	push	r25
     4aa:	ef 93       	push	r30
     4ac:	ff 93       	push	r31
	uint8_t theLow = ADCL;
     4ae:	20 91 78 00 	lds	r18, 0x0078	; 0x800078 <__TEXT_REGION_LENGTH__+0x7f8078>
	uint16_t theTenBitResult = ADCH<<8 | theLow;
     4b2:	80 91 79 00 	lds	r24, 0x0079	; 0x800079 <__TEXT_REGION_LENGTH__+0x7f8079>
     4b6:	90 e0       	ldi	r25, 0x00	; 0
     4b8:	98 2f       	mov	r25, r24
     4ba:	88 27       	eor	r24, r24
     4bc:	82 2b       	or	r24, r18
	uint8_t admux_4bits = ADMUX & 0x0F;
     4be:	20 91 7c 00 	lds	r18, 0x007C	; 0x80007c <__TEXT_REGION_LENGTH__+0x7f807c>
     4c2:	2f 70       	andi	r18, 0x0F	; 15

	switch (admux_4bits)
     4c4:	21 30       	cpi	r18, 0x01	; 1
     4c6:	99 f0       	breq	.+38     	; 0x4ee <__vector_21+0x54>
     4c8:	28 f0       	brcs	.+10     	; 0x4d4 <__vector_21+0x3a>
     4ca:	22 30       	cpi	r18, 0x02	; 2
     4cc:	e9 f0       	breq	.+58     	; 0x508 <__vector_21+0x6e>
     4ce:	23 30       	cpi	r18, 0x03	; 3
     4d0:	41 f1       	breq	.+80     	; 0x522 <__vector_21+0x88>
     4d2:	32 c0       	rjmp	.+100    	; 0x538 <__vector_21+0x9e>
		//====================
		// Entrada do usuário
		//====================

		case 0:
		medicao_ADC.entrada_usuario.potenciometro = theTenBitResult;
     4d4:	90 93 55 04 	sts	0x0455, r25	; 0x800455 <medicao_ADC+0x7>
     4d8:	80 93 54 04 	sts	0x0454, r24	; 0x800454 <medicao_ADC+0x6>
		ADMUX &= 0xF0;
     4dc:	ec e7       	ldi	r30, 0x7C	; 124
     4de:	f0 e0       	ldi	r31, 0x00	; 0
     4e0:	80 81       	ld	r24, Z
     4e2:	80 7f       	andi	r24, 0xF0	; 240
     4e4:	80 83       	st	Z, r24
		ADMUX |= 0x01;
     4e6:	80 81       	ld	r24, Z
     4e8:	81 60       	ori	r24, 0x01	; 1
     4ea:	80 83       	st	Z, r24
		break;
     4ec:	25 c0       	rjmp	.+74     	; 0x538 <__vector_21+0x9e>
		// Sensores
		//====================

		// Sensor de temperatura
		case 1:
		medicao_ADC.sensor.temperatura = theTenBitResult;
     4ee:	90 93 4f 04 	sts	0x044F, r25	; 0x80044f <medicao_ADC+0x1>
     4f2:	80 93 4e 04 	sts	0x044E, r24	; 0x80044e <medicao_ADC>
		ADMUX &= 0xF0;
     4f6:	ec e7       	ldi	r30, 0x7C	; 124
     4f8:	f0 e0       	ldi	r31, 0x00	; 0
     4fa:	80 81       	ld	r24, Z
     4fc:	80 7f       	andi	r24, 0xF0	; 240
     4fe:	80 83       	st	Z, r24
		ADMUX |= 0x02;
     500:	80 81       	ld	r24, Z
     502:	82 60       	ori	r24, 0x02	; 2
     504:	80 83       	st	Z, r24
		break;
     506:	18 c0       	rjmp	.+48     	; 0x538 <__vector_21+0x9e>

		// Sensor de umidade
		case 2:
		medicao_ADC.sensor.umidade = theTenBitResult;
     508:	90 93 51 04 	sts	0x0451, r25	; 0x800451 <medicao_ADC+0x3>
     50c:	80 93 50 04 	sts	0x0450, r24	; 0x800450 <medicao_ADC+0x2>
		ADMUX &= 0xF0;
     510:	ec e7       	ldi	r30, 0x7C	; 124
     512:	f0 e0       	ldi	r31, 0x00	; 0
     514:	80 81       	ld	r24, Z
     516:	80 7f       	andi	r24, 0xF0	; 240
     518:	80 83       	st	Z, r24
		ADMUX |= 0x03;
     51a:	80 81       	ld	r24, Z
     51c:	83 60       	ori	r24, 0x03	; 3
     51e:	80 83       	st	Z, r24
		break;
     520:	0b c0       	rjmp	.+22     	; 0x538 <__vector_21+0x9e>

		// Sensor de radiação solar
		case 3:
		medicao_ADC.sensor.radiacao_solar = theTenBitResult;
     522:	90 93 53 04 	sts	0x0453, r25	; 0x800453 <medicao_ADC+0x5>
     526:	80 93 52 04 	sts	0x0452, r24	; 0x800452 <medicao_ADC+0x4>
		ADMUX &= 0xF0;
     52a:	ec e7       	ldi	r30, 0x7C	; 124
     52c:	f0 e0       	ldi	r31, 0x00	; 0
     52e:	80 81       	ld	r24, Z
     530:	80 7f       	andi	r24, 0xF0	; 240
     532:	80 83       	st	Z, r24
		ADMUX |= 0x00;
     534:	80 81       	ld	r24, Z
     536:	80 83       	st	Z, r24
		break;
		default:
		//Default code
		break;
	} ADCSRA |= 1<<ADSC;
     538:	ea e7       	ldi	r30, 0x7A	; 122
     53a:	f0 e0       	ldi	r31, 0x00	; 0
     53c:	80 81       	ld	r24, Z
     53e:	80 64       	ori	r24, 0x40	; 64
     540:	80 83       	st	Z, r24
}
     542:	ff 91       	pop	r31
     544:	ef 91       	pop	r30
     546:	9f 91       	pop	r25
     548:	8f 91       	pop	r24
     54a:	2f 91       	pop	r18
     54c:	0f 90       	pop	r0
     54e:	0f be       	out	0x3f, r0	; 63
     550:	0f 90       	pop	r0
     552:	1f 90       	pop	r1
     554:	18 95       	reti

00000556 <EXTERNAL_IRQ_0_initialization>:
 */
static inline void PORTB_set_pin_dir(const uint8_t pin, const enum port_dir direction)
{
	switch (direction) {
	case PORT_DIR_IN:
		DDRB &= ~(1 << pin);
     556:	84 b1       	in	r24, 0x04	; 4
     558:	8f 7b       	andi	r24, 0xBF	; 191
     55a:	84 b9       	out	0x04, r24	; 4
static inline void PORTB_set_pin_pull_mode(const uint8_t pin, const enum port_pull_mode pull_mode)
{

	if (pull_mode == PORT_PULL_UP) {

		DDRB &= ~(1 << pin);
     55c:	84 b1       	in	r24, 0x04	; 4
     55e:	8f 7b       	andi	r24, 0xBF	; 191
     560:	84 b9       	out	0x04, r24	; 4

		PORTB |= 1 << pin;
     562:	85 b1       	in	r24, 0x05	; 5
     564:	80 64       	ori	r24, 0x40	; 64
     566:	85 b9       	out	0x05, r24	; 5
 */
static inline void PORTD_set_pin_dir(const uint8_t pin, const enum port_dir direction)
{
	switch (direction) {
	case PORT_DIR_IN:
		DDRD &= ~(1 << pin);
     568:	8a b1       	in	r24, 0x0a	; 10
     56a:	8b 7f       	andi	r24, 0xFB	; 251
     56c:	8a b9       	out	0x0a, r24	; 10
static inline void PORTD_set_pin_pull_mode(const uint8_t pin, const enum port_pull_mode pull_mode)
{

	if (pull_mode == PORT_PULL_UP) {

		DDRD &= ~(1 << pin);
     56e:	8a b1       	in	r24, 0x0a	; 10
     570:	8b 7f       	andi	r24, 0xFB	; 251
     572:	8a b9       	out	0x0a, r24	; 10

		PORTD |= 1 << pin;
     574:	8b b1       	in	r24, 0x0b	; 11
     576:	84 60       	ori	r24, 0x04	; 4
     578:	8b b9       	out	0x0b, r24	; 11
 */
static inline void PORTD_set_pin_dir(const uint8_t pin, const enum port_dir direction)
{
	switch (direction) {
	case PORT_DIR_IN:
		DDRD &= ~(1 << pin);
     57a:	8a b1       	in	r24, 0x0a	; 10
     57c:	87 7f       	andi	r24, 0xF7	; 247
     57e:	8a b9       	out	0x0a, r24	; 10
static inline void PORTD_set_pin_pull_mode(const uint8_t pin, const enum port_pull_mode pull_mode)
{

	if (pull_mode == PORT_PULL_UP) {

		DDRD &= ~(1 << pin);
     580:	8a b1       	in	r24, 0x0a	; 10
     582:	87 7f       	andi	r24, 0xF7	; 247
     584:	8a b9       	out	0x0a, r24	; 10

		PORTD |= 1 << pin;
     586:	8b b1       	in	r24, 0x0b	; 11
     588:	88 60       	ori	r24, 0x08	; 8
     58a:	8b b9       	out	0x0b, r24	; 11
 */
static inline void PORTD_set_pin_dir(const uint8_t pin, const enum port_dir direction)
{
	switch (direction) {
	case PORT_DIR_IN:
		DDRD &= ~(1 << pin);
     58c:	8a b1       	in	r24, 0x0a	; 10
     58e:	8f 7e       	andi	r24, 0xEF	; 239
     590:	8a b9       	out	0x0a, r24	; 10
static inline void PORTD_set_pin_pull_mode(const uint8_t pin, const enum port_pull_mode pull_mode)
{

	if (pull_mode == PORT_PULL_UP) {

		DDRD &= ~(1 << pin);
     592:	8a b1       	in	r24, 0x0a	; 10
     594:	8f 7e       	andi	r24, 0xEF	; 239
     596:	8a b9       	out	0x0a, r24	; 10

		PORTD |= 1 << pin;
     598:	8b b1       	in	r24, 0x0b	; 11
     59a:	80 61       	ori	r24, 0x10	; 16
     59c:	8b b9       	out	0x0b, r24	; 11
	    // <id> pad_pull_config
	    // <PORT_PULL_OFF"> Off
	    // <PORT_PULL_UP"> Pull-up
	    PORT_PULL_UP);

	EXTERNAL_IRQ_0_init();
     59e:	0e 94 3c 03 	call	0x678	; 0x678 <EXTERNAL_IRQ_0_init>
     5a2:	08 95       	ret

000005a4 <ADC_0_initialization>:
		DDRC &= ~(1 << pin);

		PORTC |= 1 << pin;
	} else if (pull_mode == PORT_PULL_OFF) {

		PORTC &= ~(1 << pin);
     5a4:	88 b1       	in	r24, 0x08	; 8
     5a6:	8e 7f       	andi	r24, 0xFE	; 254
     5a8:	88 b9       	out	0x08, r24	; 8
     5aa:	88 b1       	in	r24, 0x08	; 8
     5ac:	8d 7f       	andi	r24, 0xFD	; 253
     5ae:	88 b9       	out	0x08, r24	; 8
     5b0:	88 b1       	in	r24, 0x08	; 8
     5b2:	8b 7f       	andi	r24, 0xFB	; 251
     5b4:	88 b9       	out	0x08, r24	; 8
     5b6:	88 b1       	in	r24, 0x08	; 8
     5b8:	87 7f       	andi	r24, 0xF7	; 247
     5ba:	88 b9       	out	0x08, r24	; 8
	Leitura_Umidade_set_pull_mode(PORT_PULL_OFF);

	// Disable pull-up.
	Leitura_Radiacao_Solar_set_pull_mode(PORT_PULL_OFF);

	ADC_0_init();
     5bc:	0e 94 2d 02 	call	0x45a	; 0x45a <ADC_0_init>
     5c0:	08 95       	ret

000005c2 <PWM_0_initialization>:
}

void PWM_0_initialization(void)
{

	PWM_0_init();
     5c2:	0e 94 37 0c 	call	0x186e	; 0x186e <PWM_0_init>
     5c6:	08 95       	ret

000005c8 <system_init>:
{
	/* On AVR devices all peripherals are enabled from power on reset, this
	 * disables all peripherals to save power. Driver shall enable
	 * peripheral if used */

	PRR = (1 << PRSPI) | (1 << PRTIM2) | (1 << PRTIM0) | (1 << PRTIM1) | (1 << PRTWI) | (1 << PRUSART0) | (1 << PRADC);
     5c8:	8f ee       	ldi	r24, 0xEF	; 239
     5ca:	80 93 64 00 	sts	0x0064, r24	; 0x800064 <__TEXT_REGION_LENGTH__+0x7f8064>
		break;
	case PORT_DIR_OUT:
		DDRB |= mask;
		break;
	case PORT_DIR_OFF:
		DDRB &= ~mask;
     5ce:	84 b1       	in	r24, 0x04	; 4
     5d0:	14 b8       	out	0x04, r1	; 4

		PORTB |= mask;
     5d2:	85 b1       	in	r24, 0x05	; 5
     5d4:	9f ef       	ldi	r25, 0xFF	; 255
     5d6:	95 b9       	out	0x05, r25	; 5
		break;
	case PORT_DIR_OUT:
		DDRC |= mask;
		break;
	case PORT_DIR_OFF:
		DDRC &= ~mask;
     5d8:	87 b1       	in	r24, 0x07	; 7
     5da:	80 78       	andi	r24, 0x80	; 128
     5dc:	87 b9       	out	0x07, r24	; 7

		PORTC |= mask;
     5de:	88 b1       	in	r24, 0x08	; 8
     5e0:	8f 67       	ori	r24, 0x7F	; 127
     5e2:	88 b9       	out	0x08, r24	; 8
		break;
	case PORT_DIR_OUT:
		DDRD |= mask;
		break;
	case PORT_DIR_OFF:
		DDRD &= ~mask;
     5e4:	8a b1       	in	r24, 0x0a	; 10
     5e6:	1a b8       	out	0x0a, r1	; 10

		PORTD |= mask;
     5e8:	8b b1       	in	r24, 0x0b	; 11
     5ea:	9b b9       	out	0x0b, r25	; 11
	switch (direction) {
	case PORT_DIR_IN:
		DDRB &= ~(1 << pin);
		break;
	case PORT_DIR_OUT:
		DDRB |= 1 << pin;
     5ec:	84 b1       	in	r24, 0x04	; 4
     5ee:	81 60       	ori	r24, 0x01	; 1
     5f0:	84 b9       	out	0x04, r24	; 4
static inline void PORTB_set_pin_level(const uint8_t pin, const bool level)
{
	if (level) {
		PORTB |= 1 << pin;
	} else {
		PORTB &= ~(1 << pin);
     5f2:	85 b1       	in	r24, 0x05	; 5
     5f4:	8e 7f       	andi	r24, 0xFE	; 254
     5f6:	85 b9       	out	0x05, r24	; 5
	switch (direction) {
	case PORT_DIR_IN:
		DDRB &= ~(1 << pin);
		break;
	case PORT_DIR_OUT:
		DDRB |= 1 << pin;
     5f8:	84 b1       	in	r24, 0x04	; 4
     5fa:	82 60       	ori	r24, 0x02	; 2
     5fc:	84 b9       	out	0x04, r24	; 4
static inline void PORTB_set_pin_level(const uint8_t pin, const bool level)
{
	if (level) {
		PORTB |= 1 << pin;
	} else {
		PORTB &= ~(1 << pin);
     5fe:	85 b1       	in	r24, 0x05	; 5
     600:	8d 7f       	andi	r24, 0xFD	; 253
     602:	85 b9       	out	0x05, r24	; 5
	switch (direction) {
	case PORT_DIR_IN:
		DDRB &= ~(1 << pin);
		break;
	case PORT_DIR_OUT:
		DDRB |= 1 << pin;
     604:	84 b1       	in	r24, 0x04	; 4
     606:	84 60       	ori	r24, 0x04	; 4
     608:	84 b9       	out	0x04, r24	; 4
static inline void PORTB_set_pin_level(const uint8_t pin, const bool level)
{
	if (level) {
		PORTB |= 1 << pin;
	} else {
		PORTB &= ~(1 << pin);
     60a:	85 b1       	in	r24, 0x05	; 5
     60c:	8b 7f       	andi	r24, 0xFB	; 251
     60e:	85 b9       	out	0x05, r24	; 5
	switch (direction) {
	case PORT_DIR_IN:
		DDRB &= ~(1 << pin);
		break;
	case PORT_DIR_OUT:
		DDRB |= 1 << pin;
     610:	84 b1       	in	r24, 0x04	; 4
     612:	88 60       	ori	r24, 0x08	; 8
     614:	84 b9       	out	0x04, r24	; 4
static inline void PORTB_set_pin_level(const uint8_t pin, const bool level)
{
	if (level) {
		PORTB |= 1 << pin;
	} else {
		PORTB &= ~(1 << pin);
     616:	85 b1       	in	r24, 0x05	; 5
     618:	87 7f       	andi	r24, 0xF7	; 247
     61a:	85 b9       	out	0x05, r24	; 5
	switch (direction) {
	case PORT_DIR_IN:
		DDRB &= ~(1 << pin);
		break;
	case PORT_DIR_OUT:
		DDRB |= 1 << pin;
     61c:	84 b1       	in	r24, 0x04	; 4
     61e:	80 61       	ori	r24, 0x10	; 16
     620:	84 b9       	out	0x04, r24	; 4
static inline void PORTB_set_pin_level(const uint8_t pin, const bool level)
{
	if (level) {
		PORTB |= 1 << pin;
	} else {
		PORTB &= ~(1 << pin);
     622:	85 b1       	in	r24, 0x05	; 5
     624:	8f 7e       	andi	r24, 0xEF	; 239
     626:	85 b9       	out	0x05, r24	; 5
	switch (direction) {
	case PORT_DIR_IN:
		DDRB &= ~(1 << pin);
		break;
	case PORT_DIR_OUT:
		DDRB |= 1 << pin;
     628:	84 b1       	in	r24, 0x04	; 4
     62a:	80 62       	ori	r24, 0x20	; 32
     62c:	84 b9       	out	0x04, r24	; 4
static inline void PORTB_set_pin_level(const uint8_t pin, const bool level)
{
	if (level) {
		PORTB |= 1 << pin;
	} else {
		PORTB &= ~(1 << pin);
     62e:	85 b1       	in	r24, 0x05	; 5
     630:	8f 7d       	andi	r24, 0xDF	; 223
     632:	85 b9       	out	0x05, r24	; 5
	switch (direction) {
	case PORT_DIR_IN:
		DDRC &= ~(1 << pin);
		break;
	case PORT_DIR_OUT:
		DDRC |= 1 << pin;
     634:	87 b1       	in	r24, 0x07	; 7
     636:	80 62       	ori	r24, 0x20	; 32
     638:	87 b9       	out	0x07, r24	; 7
static inline void PORTC_set_pin_level(const uint8_t pin, const bool level)
{
	if (level) {
		PORTC |= 1 << pin;
	} else {
		PORTC &= ~(1 << pin);
     63a:	88 b1       	in	r24, 0x08	; 8
     63c:	8f 7d       	andi	r24, 0xDF	; 223
     63e:	88 b9       	out	0x08, r24	; 8
	switch (direction) {
	case PORT_DIR_IN:
		DDRC &= ~(1 << pin);
		break;
	case PORT_DIR_OUT:
		DDRC |= 1 << pin;
     640:	87 b1       	in	r24, 0x07	; 7
     642:	80 64       	ori	r24, 0x40	; 64
     644:	87 b9       	out	0x07, r24	; 7
static inline void PORTC_set_pin_level(const uint8_t pin, const bool level)
{
	if (level) {
		PORTC |= 1 << pin;
	} else {
		PORTC &= ~(1 << pin);
     646:	88 b1       	in	r24, 0x08	; 8
     648:	8f 7b       	andi	r24, 0xBF	; 191
     64a:	88 b9       	out	0x08, r24	; 8
	switch (direction) {
	case PORT_DIR_IN:
		DDRD &= ~(1 << pin);
		break;
	case PORT_DIR_OUT:
		DDRD |= 1 << pin;
     64c:	8a b1       	in	r24, 0x0a	; 10
     64e:	80 62       	ori	r24, 0x20	; 32
     650:	8a b9       	out	0x0a, r24	; 10
static inline void PORTD_set_pin_level(const uint8_t pin, const bool level)
{
	if (level) {
		PORTD |= 1 << pin;
	} else {
		PORTD &= ~(1 << pin);
     652:	8b b1       	in	r24, 0x0b	; 11
     654:	8f 7d       	andi	r24, 0xDF	; 223
     656:	8b b9       	out	0x0b, r24	; 11
 * \return Initialization status.
 */
static inline int8_t sysctrl_init()
{
	/* Set up system clock prescaler according to configuration */
	protected_write_io((void *)&CLKPR, 1 << CLKPCE, (0 << CLKPS3) | (0 << CLKPS2) | (0 << CLKPS1) | (0 << CLKPS0));
     658:	40 e0       	ldi	r20, 0x00	; 0
     65a:	60 e8       	ldi	r22, 0x80	; 128
     65c:	81 e6       	ldi	r24, 0x61	; 97
     65e:	90 e0       	ldi	r25, 0x00	; 0
     660:	0e 94 30 0c 	call	0x1860	; 0x1860 <protected_write_io>

	SMCR = (0 << SM2) | (0 << SM1) | (0 << SM0) | // Idle
     664:	13 be       	out	0x33, r1	; 51
	       (0 << SE);

	MCUCR = (0 << PUD);
     666:	15 be       	out	0x35, r1	; 53

	ENABLE_INTERRUPTS();
     668:	78 94       	sei
	    // <true"> High
	    false);

	sysctrl_init();

	EXTERNAL_IRQ_0_initialization();
     66a:	0e 94 ab 02 	call	0x556	; 0x556 <EXTERNAL_IRQ_0_initialization>

	ADC_0_initialization();
     66e:	0e 94 d2 02 	call	0x5a4	; 0x5a4 <ADC_0_initialization>

	PWM_0_initialization();
     672:	0e 94 e1 02 	call	0x5c2	; 0x5c2 <PWM_0_initialization>
     676:	08 95       	ret

00000678 <EXTERNAL_IRQ_0_init>:
 * \return Initialization status.
 */
int8_t EXTERNAL_IRQ_0_init()
{

	PCICR = (1 << PCIE0) | // Enable pin change interrupt 0
     678:	85 e0       	ldi	r24, 0x05	; 5
     67a:	80 93 68 00 	sts	0x0068, r24	; 0x800068 <__TEXT_REGION_LENGTH__+0x7f8068>
	        (1 << PCIE2) | // Enable pin change interrupt 2
	        (1 << PCIE2) | // Enable pin change interrupt 2
	        (1 << PCIE2);  // Enable pin change interrupt 2

	PCMSK2 = (1 << PCINT18) | // Pin change enable mask 18
     67e:	8c e1       	ldi	r24, 0x1C	; 28
     680:	80 93 6d 00 	sts	0x006D, r24	; 0x80006d <__TEXT_REGION_LENGTH__+0x7f806d>
	         (1 << PCINT19) | // Pin change enable mask 19
	         (1 << PCINT20);  // Pin change enable mask 20

	PCMSK0 = (1 << PCINT6); // Pin change enable mask 6
     684:	80 e4       	ldi	r24, 0x40	; 64
     686:	80 93 6b 00 	sts	0x006B, r24	; 0x80006b <__TEXT_REGION_LENGTH__+0x7f806b>

	return 0;
}
     68a:	80 e0       	ldi	r24, 0x00	; 0
     68c:	08 95       	ret

0000068e <fim_pagina>:
struct Valores_atuais valores_atuais;

// fim_pagina
// Função auxiliar para o display
void fim_pagina(){
	nokia_lcd_set_cursor(0, 40);
     68e:	68 e2       	ldi	r22, 0x28	; 40
     690:	80 e0       	ldi	r24, 0x00	; 0
     692:	0e 94 12 0c 	call	0x1824	; 0x1824 <nokia_lcd_set_cursor>
	//snprintf(buf, 15, "          %d/%d", (int) TELA.pagina_atual, (int) TELA.pagina_total);
	snprintf(temp.buf, tam_vetor, "    pagina %d/%d",
	(int) TELA.pagina_atual, (int) TELA.pagina_total);
     696:	e6 e5       	ldi	r30, 0x56	; 86
     698:	f4 e0       	ldi	r31, 0x04	; 4
     69a:	91 81       	ldd	r25, Z+1	; 0x01
     69c:	80 81       	ld	r24, Z
// fim_pagina
// Função auxiliar para o display
void fim_pagina(){
	nokia_lcd_set_cursor(0, 40);
	//snprintf(buf, 15, "          %d/%d", (int) TELA.pagina_atual, (int) TELA.pagina_total);
	snprintf(temp.buf, tam_vetor, "    pagina %d/%d",
     69e:	1f 92       	push	r1
     6a0:	9f 93       	push	r25
     6a2:	1f 92       	push	r1
     6a4:	8f 93       	push	r24
     6a6:	80 e0       	ldi	r24, 0x00	; 0
     6a8:	91 e0       	ldi	r25, 0x01	; 1
     6aa:	9f 93       	push	r25
     6ac:	8f 93       	push	r24
     6ae:	1f 92       	push	r1
     6b0:	8f e0       	ldi	r24, 0x0F	; 15
     6b2:	8f 93       	push	r24
     6b4:	86 ef       	ldi	r24, 0xF6	; 246
     6b6:	93 e0       	ldi	r25, 0x03	; 3
     6b8:	9f 93       	push	r25
     6ba:	8f 93       	push	r24
     6bc:	0e 94 a4 0e 	call	0x1d48	; 0x1d48 <snprintf>
	(int) TELA.pagina_atual, (int) TELA.pagina_total);
	//int2string(TELA.pagina_atual, temp_string);
	nokia_lcd_write_string(temp.buf, 1);
     6c0:	61 e0       	ldi	r22, 0x01	; 1
     6c2:	86 ef       	ldi	r24, 0xF6	; 246
     6c4:	93 e0       	ldi	r25, 0x03	; 3
     6c6:	0e 94 01 0c 	call	0x1802	; 0x1802 <nokia_lcd_write_string>
	nokia_lcd_render(); //Atualiza a tela do display com o conteúdo do buffer
     6ca:	0e 94 17 0c 	call	0x182e	; 0x182e <nokia_lcd_render>
}
     6ce:	8d b7       	in	r24, 0x3d	; 61
     6d0:	9e b7       	in	r25, 0x3e	; 62
     6d2:	0a 96       	adiw	r24, 0x0a	; 10
     6d4:	0f b6       	in	r0, 0x3f	; 63
     6d6:	f8 94       	cli
     6d8:	9e bf       	out	0x3e, r25	; 62
     6da:	0f be       	out	0x3f, r0	; 63
     6dc:	8d bf       	out	0x3d, r24	; 61
     6de:	08 95       	ret

000006e0 <valor_medido>:

// valor_medido
// converte os digitos da leitura analógica no valor da grandeza medida pelo sensor
float valor_medido(float medicao, struct Range range){
     6e0:	8f 92       	push	r8
     6e2:	9f 92       	push	r9
     6e4:	af 92       	push	r10
     6e6:	bf 92       	push	r11
     6e8:	cf 92       	push	r12
     6ea:	df 92       	push	r13
     6ec:	ef 92       	push	r14
     6ee:	ff 92       	push	r15
     6f0:	0f 93       	push	r16
     6f2:	1f 93       	push	r17
     6f4:	cf 93       	push	r28
     6f6:	df 93       	push	r29
     6f8:	cd b7       	in	r28, 0x3d	; 61
     6fa:	de b7       	in	r29, 0x3e	; 62
     6fc:	28 97       	sbiw	r28, 0x08	; 8
     6fe:	0f b6       	in	r0, 0x3f	; 63
     700:	f8 94       	cli
     702:	de bf       	out	0x3e, r29	; 62
     704:	0f be       	out	0x3f, r0	; 63
     706:	cd bf       	out	0x3d, r28	; 61
     708:	e9 82       	std	Y+1, r14	; 0x01
     70a:	fa 82       	std	Y+2, r15	; 0x02
     70c:	0b 83       	std	Y+3, r16	; 0x03
     70e:	1c 83       	std	Y+4, r17	; 0x04
     710:	2d 83       	std	Y+5, r18	; 0x05
     712:	3e 83       	std	Y+6, r19	; 0x06
     714:	4f 83       	std	Y+7, r20	; 0x07
     716:	58 87       	std	Y+8, r21	; 0x08
	return (medicao/1023.0) * (range.max - range.min) + range.min;
     718:	20 e0       	ldi	r18, 0x00	; 0
     71a:	30 ec       	ldi	r19, 0xC0	; 192
     71c:	4f e7       	ldi	r20, 0x7F	; 127
     71e:	54 e4       	ldi	r21, 0x44	; 68
     720:	0e 94 cc 0c 	call	0x1998	; 0x1998 <__divsf3>
     724:	4b 01       	movw	r8, r22
     726:	5c 01       	movw	r10, r24
     728:	6d 81       	ldd	r22, Y+5	; 0x05
     72a:	7e 81       	ldd	r23, Y+6	; 0x06
     72c:	8f 81       	ldd	r24, Y+7	; 0x07
     72e:	98 85       	ldd	r25, Y+8	; 0x08
     730:	c9 80       	ldd	r12, Y+1	; 0x01
     732:	da 80       	ldd	r13, Y+2	; 0x02
     734:	eb 80       	ldd	r14, Y+3	; 0x03
     736:	fc 80       	ldd	r15, Y+4	; 0x04
     738:	a7 01       	movw	r20, r14
     73a:	96 01       	movw	r18, r12
     73c:	0e 94 5a 0c 	call	0x18b4	; 0x18b4 <__subsf3>
     740:	9b 01       	movw	r18, r22
     742:	ac 01       	movw	r20, r24
     744:	c5 01       	movw	r24, r10
     746:	b4 01       	movw	r22, r8
     748:	0e 94 2b 0e 	call	0x1c56	; 0x1c56 <__mulsf3>
     74c:	9b 01       	movw	r18, r22
     74e:	ac 01       	movw	r20, r24
     750:	c7 01       	movw	r24, r14
     752:	b6 01       	movw	r22, r12
     754:	0e 94 5b 0c 	call	0x18b6	; 0x18b6 <__addsf3>
}
     758:	28 96       	adiw	r28, 0x08	; 8
     75a:	0f b6       	in	r0, 0x3f	; 63
     75c:	f8 94       	cli
     75e:	de bf       	out	0x3e, r29	; 62
     760:	0f be       	out	0x3f, r0	; 63
     762:	cd bf       	out	0x3d, r28	; 61
     764:	df 91       	pop	r29
     766:	cf 91       	pop	r28
     768:	1f 91       	pop	r17
     76a:	0f 91       	pop	r16
     76c:	ff 90       	pop	r15
     76e:	ef 90       	pop	r14
     770:	df 90       	pop	r13
     772:	cf 90       	pop	r12
     774:	bf 90       	pop	r11
     776:	af 90       	pop	r10
     778:	9f 90       	pop	r9
     77a:	8f 90       	pop	r8
     77c:	08 95       	ret

0000077e <mostrar_dados_sensores>:

// mostrar_dados_sensores
// Mostrar dados medidos dos sensores | TELA 1, 2 e 3
void mostrar_dados_sensores(uint8_t conjunto){
     77e:	4f 92       	push	r4
     780:	5f 92       	push	r5
     782:	6f 92       	push	r6
     784:	7f 92       	push	r7
     786:	8f 92       	push	r8
     788:	9f 92       	push	r9
     78a:	af 92       	push	r10
     78c:	bf 92       	push	r11
     78e:	ef 92       	push	r14
     790:	ff 92       	push	r15
     792:	0f 93       	push	r16
     794:	1f 93       	push	r17
     796:	cf 93       	push	r28
     798:	df 93       	push	r29
	switch(conjunto){
     79a:	82 30       	cpi	r24, 0x02	; 2
     79c:	89 f1       	breq	.+98     	; 0x800 <__DATA_REGION_LENGTH__>
     79e:	83 30       	cpi	r24, 0x03	; 3
     7a0:	09 f4       	brne	.+2      	; 0x7a4 <mostrar_dados_sensores+0x26>
     7a2:	59 c0       	rjmp	.+178    	; 0x856 <__DATA_REGION_LENGTH__+0x56>
     7a4:	81 30       	cpi	r24, 0x01	; 1
     7a6:	09 f0       	breq	.+2      	; 0x7aa <mostrar_dados_sensores+0x2c>
     7a8:	81 c0       	rjmp	.+258    	; 0x8ac <__DATA_REGION_LENGTH__+0xac>
		case 1:
		temp.temperatura = valores_atuais.temperatura;
     7aa:	a1 ed       	ldi	r26, 0xD1	; 209
     7ac:	b3 e0       	ldi	r27, 0x03	; 3
     7ae:	4d 91       	ld	r20, X+
     7b0:	5d 91       	ld	r21, X+
     7b2:	6d 91       	ld	r22, X+
     7b4:	7c 91       	ld	r23, X
     7b6:	13 97       	sbiw	r26, 0x03	; 3
     7b8:	ea ee       	ldi	r30, 0xEA	; 234
     7ba:	f3 e0       	ldi	r31, 0x03	; 3
     7bc:	40 83       	st	Z, r20
     7be:	51 83       	std	Z+1, r21	; 0x01
     7c0:	62 83       	std	Z+2, r22	; 0x02
     7c2:	73 83       	std	Z+3, r23	; 0x03
		temp.umidade = valores_atuais.umidade;
     7c4:	14 96       	adiw	r26, 0x04	; 4
     7c6:	4d 91       	ld	r20, X+
     7c8:	5d 91       	ld	r21, X+
     7ca:	6d 91       	ld	r22, X+
     7cc:	7c 91       	ld	r23, X
     7ce:	17 97       	sbiw	r26, 0x07	; 7
     7d0:	44 83       	std	Z+4, r20	; 0x04
     7d2:	55 83       	std	Z+5, r21	; 0x05
     7d4:	66 83       	std	Z+6, r22	; 0x06
     7d6:	77 83       	std	Z+7, r23	; 0x07
		temp.radiacao_solar = valores_atuais.radiacao_solar;
     7d8:	18 96       	adiw	r26, 0x08	; 8
     7da:	8d 91       	ld	r24, X+
     7dc:	9d 91       	ld	r25, X+
     7de:	0d 90       	ld	r0, X+
     7e0:	bc 91       	ld	r27, X
     7e2:	a0 2d       	mov	r26, r0
     7e4:	80 87       	std	Z+8, r24	; 0x08
     7e6:	91 87       	std	Z+9, r25	; 0x09
     7e8:	a2 87       	std	Z+10, r26	; 0x0a
     7ea:	b3 87       	std	Z+11, r27	; 0x0b
		
		snprintf(temp.buf, tam_vetor, "Dados medidos");
     7ec:	8e e0       	ldi	r24, 0x0E	; 14
     7ee:	e1 e1       	ldi	r30, 0x11	; 17
     7f0:	f1 e0       	ldi	r31, 0x01	; 1
     7f2:	a6 ef       	ldi	r26, 0xF6	; 246
     7f4:	b3 e0       	ldi	r27, 0x03	; 3
     7f6:	01 90       	ld	r0, Z+
     7f8:	0d 92       	st	X+, r0
     7fa:	8a 95       	dec	r24
     7fc:	e1 f7       	brne	.-8      	; 0x7f6 <mostrar_dados_sensores+0x78>
		break;
     7fe:	56 c0       	rjmp	.+172    	; 0x8ac <__DATA_REGION_LENGTH__+0xac>
		
		case 2:
		temp.temperatura = config_intervalo_aceitavel.temperatura.min;
     800:	ae e1       	ldi	r26, 0x1E	; 30
     802:	b4 e0       	ldi	r27, 0x04	; 4
     804:	4d 91       	ld	r20, X+
     806:	5d 91       	ld	r21, X+
     808:	6d 91       	ld	r22, X+
     80a:	7c 91       	ld	r23, X
     80c:	13 97       	sbiw	r26, 0x03	; 3
     80e:	ea ee       	ldi	r30, 0xEA	; 234
     810:	f3 e0       	ldi	r31, 0x03	; 3
     812:	40 83       	st	Z, r20
     814:	51 83       	std	Z+1, r21	; 0x01
     816:	62 83       	std	Z+2, r22	; 0x02
     818:	73 83       	std	Z+3, r23	; 0x03
		temp.umidade = config_intervalo_aceitavel.umidade.min;
     81a:	18 96       	adiw	r26, 0x08	; 8
     81c:	4d 91       	ld	r20, X+
     81e:	5d 91       	ld	r21, X+
     820:	6d 91       	ld	r22, X+
     822:	7c 91       	ld	r23, X
     824:	1b 97       	sbiw	r26, 0x0b	; 11
     826:	44 83       	std	Z+4, r20	; 0x04
     828:	55 83       	std	Z+5, r21	; 0x05
     82a:	66 83       	std	Z+6, r22	; 0x06
     82c:	77 83       	std	Z+7, r23	; 0x07
		temp.radiacao_solar = config_intervalo_aceitavel.radiacao_solar.min;
     82e:	50 96       	adiw	r26, 0x10	; 16
     830:	8d 91       	ld	r24, X+
     832:	9d 91       	ld	r25, X+
     834:	0d 90       	ld	r0, X+
     836:	bc 91       	ld	r27, X
     838:	a0 2d       	mov	r26, r0
     83a:	80 87       	std	Z+8, r24	; 0x08
     83c:	91 87       	std	Z+9, r25	; 0x09
     83e:	a2 87       	std	Z+10, r26	; 0x0a
     840:	b3 87       	std	Z+11, r27	; 0x0b
		snprintf(temp.buf, tam_vetor, "Config min");
     842:	8b e0       	ldi	r24, 0x0B	; 11
     844:	ef e1       	ldi	r30, 0x1F	; 31
     846:	f1 e0       	ldi	r31, 0x01	; 1
     848:	a6 ef       	ldi	r26, 0xF6	; 246
     84a:	b3 e0       	ldi	r27, 0x03	; 3
     84c:	01 90       	ld	r0, Z+
     84e:	0d 92       	st	X+, r0
     850:	8a 95       	dec	r24
     852:	e1 f7       	brne	.-8      	; 0x84c <__DATA_REGION_LENGTH__+0x4c>
		break;
     854:	2b c0       	rjmp	.+86     	; 0x8ac <__DATA_REGION_LENGTH__+0xac>
		
		case 3:
		temp.temperatura = config_intervalo_aceitavel.temperatura.max;
     856:	ae e1       	ldi	r26, 0x1E	; 30
     858:	b4 e0       	ldi	r27, 0x04	; 4
     85a:	14 96       	adiw	r26, 0x04	; 4
     85c:	4d 91       	ld	r20, X+
     85e:	5d 91       	ld	r21, X+
     860:	6d 91       	ld	r22, X+
     862:	7c 91       	ld	r23, X
     864:	17 97       	sbiw	r26, 0x07	; 7
     866:	ea ee       	ldi	r30, 0xEA	; 234
     868:	f3 e0       	ldi	r31, 0x03	; 3
     86a:	40 83       	st	Z, r20
     86c:	51 83       	std	Z+1, r21	; 0x01
     86e:	62 83       	std	Z+2, r22	; 0x02
     870:	73 83       	std	Z+3, r23	; 0x03
		temp.umidade = config_intervalo_aceitavel.umidade.max;
     872:	1c 96       	adiw	r26, 0x0c	; 12
     874:	4d 91       	ld	r20, X+
     876:	5d 91       	ld	r21, X+
     878:	6d 91       	ld	r22, X+
     87a:	7c 91       	ld	r23, X
     87c:	1f 97       	sbiw	r26, 0x0f	; 15
     87e:	44 83       	std	Z+4, r20	; 0x04
     880:	55 83       	std	Z+5, r21	; 0x05
     882:	66 83       	std	Z+6, r22	; 0x06
     884:	77 83       	std	Z+7, r23	; 0x07
		temp.radiacao_solar = config_intervalo_aceitavel.radiacao_solar.max;
     886:	54 96       	adiw	r26, 0x14	; 20
     888:	8d 91       	ld	r24, X+
     88a:	9d 91       	ld	r25, X+
     88c:	0d 90       	ld	r0, X+
     88e:	bc 91       	ld	r27, X
     890:	a0 2d       	mov	r26, r0
     892:	80 87       	std	Z+8, r24	; 0x08
     894:	91 87       	std	Z+9, r25	; 0x09
     896:	a2 87       	std	Z+10, r26	; 0x0a
     898:	b3 87       	std	Z+11, r27	; 0x0b
		snprintf(temp.buf, tam_vetor, "Config max");
     89a:	8b e0       	ldi	r24, 0x0B	; 11
     89c:	ea e2       	ldi	r30, 0x2A	; 42
     89e:	f1 e0       	ldi	r31, 0x01	; 1
     8a0:	a6 ef       	ldi	r26, 0xF6	; 246
     8a2:	b3 e0       	ldi	r27, 0x03	; 3
     8a4:	01 90       	ld	r0, Z+
     8a6:	0d 92       	st	X+, r0
     8a8:	8a 95       	dec	r24
     8aa:	e1 f7       	brne	.-8      	; 0x8a4 <__DATA_REGION_LENGTH__+0xa4>
		break;
		default:
		break;
	}
	nokia_lcd_clear(); //Limpa o LCD
     8ac:	0e 94 39 0b 	call	0x1672	; 0x1672 <nokia_lcd_clear>
	nokia_lcd_write_string(temp.buf,1);
     8b0:	61 e0       	ldi	r22, 0x01	; 1
     8b2:	86 ef       	ldi	r24, 0xF6	; 246
     8b4:	93 e0       	ldi	r25, 0x03	; 3
     8b6:	0e 94 01 0c 	call	0x1802	; 0x1802 <nokia_lcd_write_string>
	nokia_lcd_set_cursor(0, 10);
     8ba:	6a e0       	ldi	r22, 0x0A	; 10
     8bc:	80 e0       	ldi	r24, 0x00	; 0
     8be:	0e 94 12 0c 	call	0x1824	; 0x1824 <nokia_lcd_set_cursor>

	// Temperatura
	nokia_lcd_write_string("Temp: ", 1);
     8c2:	61 e0       	ldi	r22, 0x01	; 1
     8c4:	85 e3       	ldi	r24, 0x35	; 53
     8c6:	91 e0       	ldi	r25, 0x01	; 1
     8c8:	0e 94 01 0c 	call	0x1802	; 0x1802 <nokia_lcd_write_string>
	snprintf(temp.buf, tam_vetor, "%d,%d C", (int)(temp.temperatura),
	(int)(temp.temperatura - ((int)temp.temperatura) ) * 100);
     8cc:	0f 2e       	mov	r0, r31
     8ce:	fa ee       	ldi	r31, 0xEA	; 234
     8d0:	ef 2e       	mov	r14, r31
     8d2:	f3 e0       	ldi	r31, 0x03	; 3
     8d4:	ff 2e       	mov	r15, r31
     8d6:	f0 2d       	mov	r31, r0
     8d8:	f7 01       	movw	r30, r14
     8da:	40 80       	ld	r4, Z
     8dc:	51 80       	ldd	r5, Z+1	; 0x01
     8de:	62 80       	ldd	r6, Z+2	; 0x02
     8e0:	73 80       	ldd	r7, Z+3	; 0x03
     8e2:	c3 01       	movw	r24, r6
     8e4:	b2 01       	movw	r22, r4
     8e6:	0e 94 3e 0d 	call	0x1a7c	; 0x1a7c <__fixsfsi>
     8ea:	4b 01       	movw	r8, r22
     8ec:	5c 01       	movw	r10, r24
     8ee:	07 2e       	mov	r0, r23
     8f0:	00 0c       	add	r0, r0
     8f2:	88 0b       	sbc	r24, r24
     8f4:	99 0b       	sbc	r25, r25
     8f6:	0e 94 76 0d 	call	0x1aec	; 0x1aec <__floatsisf>
     8fa:	9b 01       	movw	r18, r22
     8fc:	ac 01       	movw	r20, r24
     8fe:	c3 01       	movw	r24, r6
     900:	b2 01       	movw	r22, r4
     902:	0e 94 5a 0c 	call	0x18b4	; 0x18b4 <__subsf3>
     906:	0e 94 3e 0d 	call	0x1a7c	; 0x1a7c <__fixsfsi>
	nokia_lcd_write_string(temp.buf,1);
	nokia_lcd_set_cursor(0, 10);

	// Temperatura
	nokia_lcd_write_string("Temp: ", 1);
	snprintf(temp.buf, tam_vetor, "%d,%d C", (int)(temp.temperatura),
     90a:	04 e6       	ldi	r16, 0x64	; 100
     90c:	06 9f       	mul	r16, r22
     90e:	90 01       	movw	r18, r0
     910:	07 9f       	mul	r16, r23
     912:	30 0d       	add	r19, r0
     914:	11 24       	eor	r1, r1
     916:	3f 93       	push	r19
     918:	2f 93       	push	r18
     91a:	9f 92       	push	r9
     91c:	8f 92       	push	r8
     91e:	8c e3       	ldi	r24, 0x3C	; 60
     920:	91 e0       	ldi	r25, 0x01	; 1
     922:	9f 93       	push	r25
     924:	8f 93       	push	r24
     926:	1f 92       	push	r1
     928:	1f e0       	ldi	r17, 0x0F	; 15
     92a:	1f 93       	push	r17
     92c:	c6 ef       	ldi	r28, 0xF6	; 246
     92e:	d3 e0       	ldi	r29, 0x03	; 3
     930:	df 93       	push	r29
     932:	cf 93       	push	r28
     934:	0e 94 a4 0e 	call	0x1d48	; 0x1d48 <snprintf>
	(int)(temp.temperatura - ((int)temp.temperatura) ) * 100);
	nokia_lcd_write_string(temp.buf,1); //Escreve a leitura no buffer do LCD
     938:	61 e0       	ldi	r22, 0x01	; 1
     93a:	ce 01       	movw	r24, r28
     93c:	0e 94 01 0c 	call	0x1802	; 0x1802 <nokia_lcd_write_string>
	nokia_lcd_set_cursor(0, 20);
     940:	64 e1       	ldi	r22, 0x14	; 20
     942:	80 e0       	ldi	r24, 0x00	; 0
     944:	0e 94 12 0c 	call	0x1824	; 0x1824 <nokia_lcd_set_cursor>

	// Umidade
	nokia_lcd_write_string("Umid: ", 1);
     948:	61 e0       	ldi	r22, 0x01	; 1
     94a:	84 e4       	ldi	r24, 0x44	; 68
     94c:	91 e0       	ldi	r25, 0x01	; 1
     94e:	0e 94 01 0c 	call	0x1802	; 0x1802 <nokia_lcd_write_string>
	snprintf(temp.buf, tam_vetor, "%d,%d %%", (int)(temp.umidade),
	(int)(temp.umidade - ((int)temp.umidade) ) * 100);
     952:	f7 01       	movw	r30, r14
     954:	44 80       	ldd	r4, Z+4	; 0x04
     956:	55 80       	ldd	r5, Z+5	; 0x05
     958:	66 80       	ldd	r6, Z+6	; 0x06
     95a:	77 80       	ldd	r7, Z+7	; 0x07
     95c:	c3 01       	movw	r24, r6
     95e:	b2 01       	movw	r22, r4
     960:	0e 94 3e 0d 	call	0x1a7c	; 0x1a7c <__fixsfsi>
     964:	4b 01       	movw	r8, r22
     966:	5c 01       	movw	r10, r24
     968:	07 2e       	mov	r0, r23
     96a:	00 0c       	add	r0, r0
     96c:	88 0b       	sbc	r24, r24
     96e:	99 0b       	sbc	r25, r25
     970:	0e 94 76 0d 	call	0x1aec	; 0x1aec <__floatsisf>
     974:	9b 01       	movw	r18, r22
     976:	ac 01       	movw	r20, r24
     978:	c3 01       	movw	r24, r6
     97a:	b2 01       	movw	r22, r4
     97c:	0e 94 5a 0c 	call	0x18b4	; 0x18b4 <__subsf3>
     980:	0e 94 3e 0d 	call	0x1a7c	; 0x1a7c <__fixsfsi>
	nokia_lcd_write_string(temp.buf,1); //Escreve a leitura no buffer do LCD
	nokia_lcd_set_cursor(0, 20);

	// Umidade
	nokia_lcd_write_string("Umid: ", 1);
	snprintf(temp.buf, tam_vetor, "%d,%d %%", (int)(temp.umidade),
     984:	06 9f       	mul	r16, r22
     986:	90 01       	movw	r18, r0
     988:	07 9f       	mul	r16, r23
     98a:	30 0d       	add	r19, r0
     98c:	11 24       	eor	r1, r1
     98e:	3f 93       	push	r19
     990:	2f 93       	push	r18
     992:	9f 92       	push	r9
     994:	8f 92       	push	r8
     996:	8b e4       	ldi	r24, 0x4B	; 75
     998:	91 e0       	ldi	r25, 0x01	; 1
     99a:	9f 93       	push	r25
     99c:	8f 93       	push	r24
     99e:	1f 92       	push	r1
     9a0:	1f 93       	push	r17
     9a2:	df 93       	push	r29
     9a4:	cf 93       	push	r28
     9a6:	0e 94 a4 0e 	call	0x1d48	; 0x1d48 <snprintf>
	(int)(temp.umidade - ((int)temp.umidade) ) * 100);
	nokia_lcd_write_string(temp.buf,1); //Escreve a leitura no buffer do LCD
     9aa:	61 e0       	ldi	r22, 0x01	; 1
     9ac:	ce 01       	movw	r24, r28
     9ae:	0e 94 01 0c 	call	0x1802	; 0x1802 <nokia_lcd_write_string>
	nokia_lcd_set_cursor(0, 30);
     9b2:	6e e1       	ldi	r22, 0x1E	; 30
     9b4:	80 e0       	ldi	r24, 0x00	; 0
     9b6:	0e 94 12 0c 	call	0x1824	; 0x1824 <nokia_lcd_set_cursor>

	// Radiação solar
	nokia_lcd_write_string("Rads: ", 1);
     9ba:	61 e0       	ldi	r22, 0x01	; 1
     9bc:	84 e5       	ldi	r24, 0x54	; 84
     9be:	91 e0       	ldi	r25, 0x01	; 1
     9c0:	0e 94 01 0c 	call	0x1802	; 0x1802 <nokia_lcd_write_string>
	snprintf(temp.buf, tam_vetor, "%d W/ft2", (int)(temp.radiacao_solar));
     9c4:	f7 01       	movw	r30, r14
     9c6:	60 85       	ldd	r22, Z+8	; 0x08
     9c8:	71 85       	ldd	r23, Z+9	; 0x09
     9ca:	82 85       	ldd	r24, Z+10	; 0x0a
     9cc:	93 85       	ldd	r25, Z+11	; 0x0b
     9ce:	0e 94 3e 0d 	call	0x1a7c	; 0x1a7c <__fixsfsi>
     9d2:	7f 93       	push	r23
     9d4:	6f 93       	push	r22
     9d6:	8b e5       	ldi	r24, 0x5B	; 91
     9d8:	91 e0       	ldi	r25, 0x01	; 1
     9da:	9f 93       	push	r25
     9dc:	8f 93       	push	r24
     9de:	1f 92       	push	r1
     9e0:	1f 93       	push	r17
     9e2:	df 93       	push	r29
     9e4:	cf 93       	push	r28
     9e6:	0e 94 a4 0e 	call	0x1d48	; 0x1d48 <snprintf>
	nokia_lcd_write_string(temp.buf,1); //Escreve a leitura no buffer do LCD
     9ea:	61 e0       	ldi	r22, 0x01	; 1
     9ec:	ce 01       	movw	r24, r28
     9ee:	0e 94 01 0c 	call	0x1802	; 0x1802 <nokia_lcd_write_string>
	nokia_lcd_set_cursor(0, 40);
     9f2:	68 e2       	ldi	r22, 0x28	; 40
     9f4:	80 e0       	ldi	r24, 0x00	; 0
     9f6:	0e 94 12 0c 	call	0x1824	; 0x1824 <nokia_lcd_set_cursor>
	fim_pagina();
     9fa:	0e 94 47 03 	call	0x68e	; 0x68e <fim_pagina>
}
     9fe:	ed b7       	in	r30, 0x3d	; 61
     a00:	fe b7       	in	r31, 0x3e	; 62
     a02:	7c 96       	adiw	r30, 0x1c	; 28
     a04:	0f b6       	in	r0, 0x3f	; 63
     a06:	f8 94       	cli
     a08:	fe bf       	out	0x3e, r31	; 62
     a0a:	0f be       	out	0x3f, r0	; 63
     a0c:	ed bf       	out	0x3d, r30	; 61
     a0e:	df 91       	pop	r29
     a10:	cf 91       	pop	r28
     a12:	1f 91       	pop	r17
     a14:	0f 91       	pop	r16
     a16:	ff 90       	pop	r15
     a18:	ef 90       	pop	r14
     a1a:	bf 90       	pop	r11
     a1c:	af 90       	pop	r10
     a1e:	9f 90       	pop	r9
     a20:	8f 90       	pop	r8
     a22:	7f 90       	pop	r7
     a24:	6f 90       	pop	r6
     a26:	5f 90       	pop	r5
     a28:	4f 90       	pop	r4
     a2a:	08 95       	ret

00000a2c <mostrar_status_atuadores>:

// mostrar_status_atuadores
// Mostrar status dos atuadores | TELA 4
void mostrar_status_atuadores(){
	nokia_lcd_clear(); //Limpa o LCD
     a2c:	0e 94 39 0b 	call	0x1672	; 0x1672 <nokia_lcd_clear>
	
	nokia_lcd_write_string("Status atuador", 1);
     a30:	61 e0       	ldi	r22, 0x01	; 1
     a32:	84 e6       	ldi	r24, 0x64	; 100
     a34:	91 e0       	ldi	r25, 0x01	; 1
     a36:	0e 94 01 0c 	call	0x1802	; 0x1802 <nokia_lcd_write_string>
	nokia_lcd_set_cursor(0, 10);
     a3a:	6a e0       	ldi	r22, 0x0A	; 10
     a3c:	80 e0       	ldi	r24, 0x00	; 0
     a3e:	0e 94 12 0c 	call	0x1824	; 0x1824 <nokia_lcd_set_cursor>
	
	// Bombda dagua
	nokia_lcd_write_string("Agua: ", 1);
     a42:	61 e0       	ldi	r22, 0x01	; 1
     a44:	83 e7       	ldi	r24, 0x73	; 115
     a46:	91 e0       	ldi	r25, 0x01	; 1
     a48:	0e 94 01 0c 	call	0x1802	; 0x1802 <nokia_lcd_write_string>
	if(status.bombda_dagua == 1){
     a4c:	80 91 58 04 	lds	r24, 0x0458	; 0x800458 <status>
     a50:	81 30       	cpi	r24, 0x01	; 1
     a52:	41 f4       	brne	.+16     	; 0xa64 <mostrar_status_atuadores+0x38>
		snprintf(temp.buf, tam_vetor, "ON");
     a54:	e6 ef       	ldi	r30, 0xF6	; 246
     a56:	f3 e0       	ldi	r31, 0x03	; 3
     a58:	8f e4       	ldi	r24, 0x4F	; 79
     a5a:	9e e4       	ldi	r25, 0x4E	; 78
     a5c:	91 83       	std	Z+1, r25	; 0x01
     a5e:	80 83       	st	Z, r24
     a60:	12 82       	std	Z+2, r1	; 0x02
     a62:	0a c0       	rjmp	.+20     	; 0xa78 <mostrar_status_atuadores+0x4c>
		}else{
		snprintf(temp.buf, tam_vetor, "OFF");
     a64:	e6 ef       	ldi	r30, 0xF6	; 246
     a66:	f3 e0       	ldi	r31, 0x03	; 3
     a68:	8f e4       	ldi	r24, 0x4F	; 79
     a6a:	96 e4       	ldi	r25, 0x46	; 70
     a6c:	91 83       	std	Z+1, r25	; 0x01
     a6e:	80 83       	st	Z, r24
     a70:	86 e4       	ldi	r24, 0x46	; 70
     a72:	90 e0       	ldi	r25, 0x00	; 0
     a74:	93 83       	std	Z+3, r25	; 0x03
     a76:	82 83       	std	Z+2, r24	; 0x02
	}
	nokia_lcd_write_string(temp.buf, 1);
     a78:	61 e0       	ldi	r22, 0x01	; 1
     a7a:	86 ef       	ldi	r24, 0xF6	; 246
     a7c:	93 e0       	ldi	r25, 0x03	; 3
     a7e:	0e 94 01 0c 	call	0x1802	; 0x1802 <nokia_lcd_write_string>
	nokia_lcd_set_cursor(0, 20);
     a82:	64 e1       	ldi	r22, 0x14	; 20
     a84:	80 e0       	ldi	r24, 0x00	; 0
     a86:	0e 94 12 0c 	call	0x1824	; 0x1824 <nokia_lcd_set_cursor>
	
	// Ar condicionado
	nokia_lcd_write_string("Ar: ", 1);
     a8a:	61 e0       	ldi	r22, 0x01	; 1
     a8c:	8a e7       	ldi	r24, 0x7A	; 122
     a8e:	91 e0       	ldi	r25, 0x01	; 1
     a90:	0e 94 01 0c 	call	0x1802	; 0x1802 <nokia_lcd_write_string>
	if(status.ar_condicionado == 1){
     a94:	80 91 59 04 	lds	r24, 0x0459	; 0x800459 <status+0x1>
     a98:	81 30       	cpi	r24, 0x01	; 1
     a9a:	41 f4       	brne	.+16     	; 0xaac <mostrar_status_atuadores+0x80>
		snprintf(temp.buf, tam_vetor, "ON");
     a9c:	e6 ef       	ldi	r30, 0xF6	; 246
     a9e:	f3 e0       	ldi	r31, 0x03	; 3
     aa0:	8f e4       	ldi	r24, 0x4F	; 79
     aa2:	9e e4       	ldi	r25, 0x4E	; 78
     aa4:	91 83       	std	Z+1, r25	; 0x01
     aa6:	80 83       	st	Z, r24
     aa8:	12 82       	std	Z+2, r1	; 0x02
     aaa:	0a c0       	rjmp	.+20     	; 0xac0 <mostrar_status_atuadores+0x94>
		}else{
		snprintf(temp.buf, tam_vetor, "OFF");
     aac:	e6 ef       	ldi	r30, 0xF6	; 246
     aae:	f3 e0       	ldi	r31, 0x03	; 3
     ab0:	8f e4       	ldi	r24, 0x4F	; 79
     ab2:	96 e4       	ldi	r25, 0x46	; 70
     ab4:	91 83       	std	Z+1, r25	; 0x01
     ab6:	80 83       	st	Z, r24
     ab8:	86 e4       	ldi	r24, 0x46	; 70
     aba:	90 e0       	ldi	r25, 0x00	; 0
     abc:	93 83       	std	Z+3, r25	; 0x03
     abe:	82 83       	std	Z+2, r24	; 0x02
	}
	nokia_lcd_write_string(temp.buf, 1);
     ac0:	61 e0       	ldi	r22, 0x01	; 1
     ac2:	86 ef       	ldi	r24, 0xF6	; 246
     ac4:	93 e0       	ldi	r25, 0x03	; 3
     ac6:	0e 94 01 0c 	call	0x1802	; 0x1802 <nokia_lcd_write_string>
	nokia_lcd_set_cursor(0, 30);
     aca:	6e e1       	ldi	r22, 0x1E	; 30
     acc:	80 e0       	ldi	r24, 0x00	; 0
     ace:	0e 94 12 0c 	call	0x1824	; 0x1824 <nokia_lcd_set_cursor>
	
	// Bombda dagua
	nokia_lcd_write_string("LED: ", 1);
     ad2:	61 e0       	ldi	r22, 0x01	; 1
     ad4:	8f e7       	ldi	r24, 0x7F	; 127
     ad6:	91 e0       	ldi	r25, 0x01	; 1
     ad8:	0e 94 01 0c 	call	0x1802	; 0x1802 <nokia_lcd_write_string>
	if(status.LED == 1){
     adc:	80 91 5a 04 	lds	r24, 0x045A	; 0x80045a <status+0x2>
     ae0:	81 30       	cpi	r24, 0x01	; 1
     ae2:	41 f4       	brne	.+16     	; 0xaf4 <mostrar_status_atuadores+0xc8>
		snprintf(temp.buf, tam_vetor, "ON");
     ae4:	e6 ef       	ldi	r30, 0xF6	; 246
     ae6:	f3 e0       	ldi	r31, 0x03	; 3
     ae8:	8f e4       	ldi	r24, 0x4F	; 79
     aea:	9e e4       	ldi	r25, 0x4E	; 78
     aec:	91 83       	std	Z+1, r25	; 0x01
     aee:	80 83       	st	Z, r24
     af0:	12 82       	std	Z+2, r1	; 0x02
     af2:	0a c0       	rjmp	.+20     	; 0xb08 <mostrar_status_atuadores+0xdc>
		}else{
		snprintf(temp.buf, tam_vetor, "OFF");
     af4:	e6 ef       	ldi	r30, 0xF6	; 246
     af6:	f3 e0       	ldi	r31, 0x03	; 3
     af8:	8f e4       	ldi	r24, 0x4F	; 79
     afa:	96 e4       	ldi	r25, 0x46	; 70
     afc:	91 83       	std	Z+1, r25	; 0x01
     afe:	80 83       	st	Z, r24
     b00:	86 e4       	ldi	r24, 0x46	; 70
     b02:	90 e0       	ldi	r25, 0x00	; 0
     b04:	93 83       	std	Z+3, r25	; 0x03
     b06:	82 83       	std	Z+2, r24	; 0x02
	}
	nokia_lcd_write_string(temp.buf, 1);
     b08:	61 e0       	ldi	r22, 0x01	; 1
     b0a:	86 ef       	ldi	r24, 0xF6	; 246
     b0c:	93 e0       	ldi	r25, 0x03	; 3
     b0e:	0e 94 01 0c 	call	0x1802	; 0x1802 <nokia_lcd_write_string>
	nokia_lcd_set_cursor(0, 40);
     b12:	68 e2       	ldi	r22, 0x28	; 40
     b14:	80 e0       	ldi	r24, 0x00	; 0
     b16:	0e 94 12 0c 	call	0x1824	; 0x1824 <nokia_lcd_set_cursor>
	
	// Bombda dagua
	nokia_lcd_write_string("Teto: ", 1);
     b1a:	61 e0       	ldi	r22, 0x01	; 1
     b1c:	85 e8       	ldi	r24, 0x85	; 133
     b1e:	91 e0       	ldi	r25, 0x01	; 1
     b20:	0e 94 01 0c 	call	0x1802	; 0x1802 <nokia_lcd_write_string>
	if(status.Teto == 1){
     b24:	80 91 5b 04 	lds	r24, 0x045B	; 0x80045b <status+0x3>
     b28:	81 30       	cpi	r24, 0x01	; 1
     b2a:	51 f4       	brne	.+20     	; 0xb40 <mostrar_status_atuadores+0x114>
		snprintf(temp.buf, tam_vetor, "Aberto");
     b2c:	87 e0       	ldi	r24, 0x07	; 7
     b2e:	ec e8       	ldi	r30, 0x8C	; 140
     b30:	f1 e0       	ldi	r31, 0x01	; 1
     b32:	a6 ef       	ldi	r26, 0xF6	; 246
     b34:	b3 e0       	ldi	r27, 0x03	; 3
     b36:	01 90       	ld	r0, Z+
     b38:	0d 92       	st	X+, r0
     b3a:	8a 95       	dec	r24
     b3c:	e1 f7       	brne	.-8      	; 0xb36 <mostrar_status_atuadores+0x10a>
     b3e:	09 c0       	rjmp	.+18     	; 0xb52 <mostrar_status_atuadores+0x126>
		}else{
		snprintf(temp.buf, tam_vetor, "Fechado");
     b40:	88 e0       	ldi	r24, 0x08	; 8
     b42:	e3 e9       	ldi	r30, 0x93	; 147
     b44:	f1 e0       	ldi	r31, 0x01	; 1
     b46:	a6 ef       	ldi	r26, 0xF6	; 246
     b48:	b3 e0       	ldi	r27, 0x03	; 3
     b4a:	01 90       	ld	r0, Z+
     b4c:	0d 92       	st	X+, r0
     b4e:	8a 95       	dec	r24
     b50:	e1 f7       	brne	.-8      	; 0xb4a <mostrar_status_atuadores+0x11e>
	}
	nokia_lcd_write_string(temp.buf, 1);
     b52:	61 e0       	ldi	r22, 0x01	; 1
     b54:	86 ef       	ldi	r24, 0xF6	; 246
     b56:	93 e0       	ldi	r25, 0x03	; 3
     b58:	0e 94 01 0c 	call	0x1802	; 0x1802 <nokia_lcd_write_string>

	nokia_lcd_render();
     b5c:	0e 94 17 0c 	call	0x182e	; 0x182e <nokia_lcd_render>
     b60:	08 95       	ret

00000b62 <editar_valor>:
}

// editar_valor
// Configurar dados de range
void editar_valor(){
     b62:	8f 92       	push	r8
     b64:	9f 92       	push	r9
     b66:	af 92       	push	r10
     b68:	bf 92       	push	r11
     b6a:	cf 92       	push	r12
     b6c:	df 92       	push	r13
     b6e:	ef 92       	push	r14
     b70:	ff 92       	push	r15
     b72:	0f 93       	push	r16
     b74:	1f 93       	push	r17
     b76:	cf 93       	push	r28
     b78:	df 93       	push	r29
	TELA.pagina_atual = 5;
     b7a:	85 e0       	ldi	r24, 0x05	; 5
     b7c:	80 93 56 04 	sts	0x0456, r24	; 0x800456 <TELA>
	
	if (edicao.esta_editando_umidade == 1){
     b80:	80 91 df 03 	lds	r24, 0x03DF	; 0x8003df <edicao+0x2>
     b84:	81 30       	cpi	r24, 0x01	; 1
     b86:	09 f0       	breq	.+2      	; 0xb8a <editar_valor+0x28>
     b88:	92 c0       	rjmp	.+292    	; 0xcae <editar_valor+0x14c>
		snprintf(temp.buf2, tam_vetor, "Umidade");
     b8a:	88 e0       	ldi	r24, 0x08	; 8
     b8c:	eb e9       	ldi	r30, 0x9B	; 155
     b8e:	f1 e0       	ldi	r31, 0x01	; 1
     b90:	a5 e0       	ldi	r26, 0x05	; 5
     b92:	b4 e0       	ldi	r27, 0x04	; 4
     b94:	01 90       	ld	r0, Z+
     b96:	0d 92       	st	X+, r0
     b98:	8a 95       	dec	r24
     b9a:	e1 f7       	brne	.-8      	; 0xb94 <editar_valor+0x32>
		
		// Definição do range
		if (edicao.tela_antiga == 2) // min
     b9c:	80 91 e1 03 	lds	r24, 0x03E1	; 0x8003e1 <edicao+0x4>
     ba0:	82 30       	cpi	r24, 0x02	; 2
     ba2:	d9 f4       	brne	.+54     	; 0xbda <editar_valor+0x78>
		{
			temp.range.min = faixa_de_operacao.umidade.min;
     ba4:	80 91 3e 04 	lds	r24, 0x043E	; 0x80043e <faixa_de_operacao+0x8>
     ba8:	90 91 3f 04 	lds	r25, 0x043F	; 0x80043f <faixa_de_operacao+0x9>
     bac:	a0 91 40 04 	lds	r26, 0x0440	; 0x800440 <faixa_de_operacao+0xa>
     bb0:	b0 91 41 04 	lds	r27, 0x0441	; 0x800441 <faixa_de_operacao+0xb>
     bb4:	ea ee       	ldi	r30, 0xEA	; 234
     bb6:	f3 e0       	ldi	r31, 0x03	; 3
     bb8:	82 a7       	std	Z+42, r24	; 0x2a
     bba:	93 a7       	std	Z+43, r25	; 0x2b
     bbc:	a4 a7       	std	Z+44, r26	; 0x2c
     bbe:	b5 a7       	std	Z+45, r27	; 0x2d
			temp.range.max = config_intervalo_aceitavel.umidade.max;
     bc0:	80 91 2a 04 	lds	r24, 0x042A	; 0x80042a <config_intervalo_aceitavel+0xc>
     bc4:	90 91 2b 04 	lds	r25, 0x042B	; 0x80042b <config_intervalo_aceitavel+0xd>
     bc8:	a0 91 2c 04 	lds	r26, 0x042C	; 0x80042c <config_intervalo_aceitavel+0xe>
     bcc:	b0 91 2d 04 	lds	r27, 0x042D	; 0x80042d <config_intervalo_aceitavel+0xf>
     bd0:	86 a7       	std	Z+46, r24	; 0x2e
     bd2:	97 a7       	std	Z+47, r25	; 0x2f
     bd4:	a0 ab       	std	Z+48, r26	; 0x30
     bd6:	b1 ab       	std	Z+49, r27	; 0x31
     bd8:	1a c0       	rjmp	.+52     	; 0xc0e <editar_valor+0xac>
			}else{
			temp.range.min = config_intervalo_aceitavel.umidade.min;
     bda:	80 91 26 04 	lds	r24, 0x0426	; 0x800426 <config_intervalo_aceitavel+0x8>
     bde:	90 91 27 04 	lds	r25, 0x0427	; 0x800427 <config_intervalo_aceitavel+0x9>
     be2:	a0 91 28 04 	lds	r26, 0x0428	; 0x800428 <config_intervalo_aceitavel+0xa>
     be6:	b0 91 29 04 	lds	r27, 0x0429	; 0x800429 <config_intervalo_aceitavel+0xb>
     bea:	ea ee       	ldi	r30, 0xEA	; 234
     bec:	f3 e0       	ldi	r31, 0x03	; 3
     bee:	82 a7       	std	Z+42, r24	; 0x2a
     bf0:	93 a7       	std	Z+43, r25	; 0x2b
     bf2:	a4 a7       	std	Z+44, r26	; 0x2c
     bf4:	b5 a7       	std	Z+45, r27	; 0x2d
			temp.range.max = faixa_de_operacao.umidade.max;
     bf6:	80 91 42 04 	lds	r24, 0x0442	; 0x800442 <faixa_de_operacao+0xc>
     bfa:	90 91 43 04 	lds	r25, 0x0443	; 0x800443 <faixa_de_operacao+0xd>
     bfe:	a0 91 44 04 	lds	r26, 0x0444	; 0x800444 <faixa_de_operacao+0xe>
     c02:	b0 91 45 04 	lds	r27, 0x0445	; 0x800445 <faixa_de_operacao+0xf>
     c06:	86 a7       	std	Z+46, r24	; 0x2e
     c08:	97 a7       	std	Z+47, r25	; 0x2f
     c0a:	a0 ab       	std	Z+48, r26	; 0x30
     c0c:	b1 ab       	std	Z+49, r27	; 0x31
		}
		
		// Valor medido
		edicao.valor = valor_medido(medicao_ADC.entrada_usuario.potenciometro,
     c0e:	60 91 54 04 	lds	r22, 0x0454	; 0x800454 <medicao_ADC+0x6>
     c12:	70 91 55 04 	lds	r23, 0x0455	; 0x800455 <medicao_ADC+0x7>
     c16:	c4 e1       	ldi	r28, 0x14	; 20
     c18:	d4 e0       	ldi	r29, 0x04	; 4
     c1a:	80 e0       	ldi	r24, 0x00	; 0
     c1c:	90 e0       	ldi	r25, 0x00	; 0
     c1e:	0e 94 74 0d 	call	0x1ae8	; 0x1ae8 <__floatunsisf>
     c22:	e8 80       	ld	r14, Y
     c24:	f9 80       	ldd	r15, Y+1	; 0x01
     c26:	0a 81       	ldd	r16, Y+2	; 0x02
     c28:	1b 81       	ldd	r17, Y+3	; 0x03
     c2a:	2c 81       	ldd	r18, Y+4	; 0x04
     c2c:	3d 81       	ldd	r19, Y+5	; 0x05
     c2e:	4e 81       	ldd	r20, Y+6	; 0x06
     c30:	5f 81       	ldd	r21, Y+7	; 0x07
     c32:	0e 94 70 03 	call	0x6e0	; 0x6e0 <valor_medido>
     c36:	4b 01       	movw	r8, r22
     c38:	5c 01       	movw	r10, r24
     c3a:	60 93 e2 03 	sts	0x03E2, r22	; 0x8003e2 <edicao+0x5>
     c3e:	70 93 e3 03 	sts	0x03E3, r23	; 0x8003e3 <edicao+0x6>
     c42:	80 93 e4 03 	sts	0x03E4, r24	; 0x8003e4 <edicao+0x7>
     c46:	90 93 e5 03 	sts	0x03E5, r25	; 0x8003e5 <edicao+0x8>
		temp.range);
		snprintf(temp.buf, tam_vetor, "%d,%d %%", (int)(edicao.valor),
		(int)(edicao.valor - ((int)edicao.valor) ) * 100);
     c4a:	0e 94 3e 0d 	call	0x1a7c	; 0x1a7c <__fixsfsi>
     c4e:	6b 01       	movw	r12, r22
     c50:	7c 01       	movw	r14, r24
     c52:	07 2e       	mov	r0, r23
     c54:	00 0c       	add	r0, r0
     c56:	88 0b       	sbc	r24, r24
     c58:	99 0b       	sbc	r25, r25
     c5a:	0e 94 76 0d 	call	0x1aec	; 0x1aec <__floatsisf>
     c5e:	9b 01       	movw	r18, r22
     c60:	ac 01       	movw	r20, r24
     c62:	c5 01       	movw	r24, r10
     c64:	b4 01       	movw	r22, r8
     c66:	0e 94 5a 0c 	call	0x18b4	; 0x18b4 <__subsf3>
     c6a:	0e 94 3e 0d 	call	0x1a7c	; 0x1a7c <__fixsfsi>
		}
		
		// Valor medido
		edicao.valor = valor_medido(medicao_ADC.entrada_usuario.potenciometro,
		temp.range);
		snprintf(temp.buf, tam_vetor, "%d,%d %%", (int)(edicao.valor),
     c6e:	24 e6       	ldi	r18, 0x64	; 100
     c70:	26 9f       	mul	r18, r22
     c72:	a0 01       	movw	r20, r0
     c74:	27 9f       	mul	r18, r23
     c76:	50 0d       	add	r21, r0
     c78:	11 24       	eor	r1, r1
     c7a:	5f 93       	push	r21
     c7c:	4f 93       	push	r20
     c7e:	df 92       	push	r13
     c80:	cf 92       	push	r12
     c82:	8b e4       	ldi	r24, 0x4B	; 75
     c84:	91 e0       	ldi	r25, 0x01	; 1
     c86:	9f 93       	push	r25
     c88:	8f 93       	push	r24
     c8a:	1f 92       	push	r1
     c8c:	8f e0       	ldi	r24, 0x0F	; 15
     c8e:	8f 93       	push	r24
     c90:	86 ef       	ldi	r24, 0xF6	; 246
     c92:	93 e0       	ldi	r25, 0x03	; 3
     c94:	9f 93       	push	r25
     c96:	8f 93       	push	r24
     c98:	0e 94 a4 0e 	call	0x1d48	; 0x1d48 <snprintf>
     c9c:	8d b7       	in	r24, 0x3d	; 61
     c9e:	9e b7       	in	r25, 0x3e	; 62
     ca0:	0a 96       	adiw	r24, 0x0a	; 10
     ca2:	0f b6       	in	r0, 0x3f	; 63
     ca4:	f8 94       	cli
     ca6:	9e bf       	out	0x3e, r25	; 62
     ca8:	0f be       	out	0x3f, r0	; 63
     caa:	8d bf       	out	0x3d, r24	; 61
     cac:	0e c1       	rjmp	.+540    	; 0xeca <editar_valor+0x368>
		(int)(edicao.valor - ((int)edicao.valor) ) * 100);
		}else if (edicao.esta_editando_temperatura == 1){
     cae:	80 91 de 03 	lds	r24, 0x03DE	; 0x8003de <edicao+0x1>
     cb2:	81 30       	cpi	r24, 0x01	; 1
     cb4:	09 f0       	breq	.+2      	; 0xcb8 <editar_valor+0x156>
     cb6:	92 c0       	rjmp	.+292    	; 0xddc <editar_valor+0x27a>
		snprintf(temp.buf2, tam_vetor, "Temperatura");
     cb8:	8c e0       	ldi	r24, 0x0C	; 12
     cba:	e3 ea       	ldi	r30, 0xA3	; 163
     cbc:	f1 e0       	ldi	r31, 0x01	; 1
     cbe:	a5 e0       	ldi	r26, 0x05	; 5
     cc0:	b4 e0       	ldi	r27, 0x04	; 4
     cc2:	01 90       	ld	r0, Z+
     cc4:	0d 92       	st	X+, r0
     cc6:	8a 95       	dec	r24
     cc8:	e1 f7       	brne	.-8      	; 0xcc2 <editar_valor+0x160>
		
		// Definição do range
		if (edicao.tela_antiga == 2) // min
     cca:	80 91 e1 03 	lds	r24, 0x03E1	; 0x8003e1 <edicao+0x4>
     cce:	82 30       	cpi	r24, 0x02	; 2
     cd0:	d9 f4       	brne	.+54     	; 0xd08 <editar_valor+0x1a6>
		{
			temp.range.min = faixa_de_operacao.temperatura.min;
     cd2:	80 91 36 04 	lds	r24, 0x0436	; 0x800436 <faixa_de_operacao>
     cd6:	90 91 37 04 	lds	r25, 0x0437	; 0x800437 <faixa_de_operacao+0x1>
     cda:	a0 91 38 04 	lds	r26, 0x0438	; 0x800438 <faixa_de_operacao+0x2>
     cde:	b0 91 39 04 	lds	r27, 0x0439	; 0x800439 <faixa_de_operacao+0x3>
     ce2:	ea ee       	ldi	r30, 0xEA	; 234
     ce4:	f3 e0       	ldi	r31, 0x03	; 3
     ce6:	82 a7       	std	Z+42, r24	; 0x2a
     ce8:	93 a7       	std	Z+43, r25	; 0x2b
     cea:	a4 a7       	std	Z+44, r26	; 0x2c
     cec:	b5 a7       	std	Z+45, r27	; 0x2d
			temp.range.max = config_intervalo_aceitavel.temperatura.max;
     cee:	80 91 22 04 	lds	r24, 0x0422	; 0x800422 <config_intervalo_aceitavel+0x4>
     cf2:	90 91 23 04 	lds	r25, 0x0423	; 0x800423 <config_intervalo_aceitavel+0x5>
     cf6:	a0 91 24 04 	lds	r26, 0x0424	; 0x800424 <config_intervalo_aceitavel+0x6>
     cfa:	b0 91 25 04 	lds	r27, 0x0425	; 0x800425 <config_intervalo_aceitavel+0x7>
     cfe:	86 a7       	std	Z+46, r24	; 0x2e
     d00:	97 a7       	std	Z+47, r25	; 0x2f
     d02:	a0 ab       	std	Z+48, r26	; 0x30
     d04:	b1 ab       	std	Z+49, r27	; 0x31
     d06:	1a c0       	rjmp	.+52     	; 0xd3c <editar_valor+0x1da>
			}else{
			temp.range.min = config_intervalo_aceitavel.temperatura.min;
     d08:	80 91 1e 04 	lds	r24, 0x041E	; 0x80041e <config_intervalo_aceitavel>
     d0c:	90 91 1f 04 	lds	r25, 0x041F	; 0x80041f <config_intervalo_aceitavel+0x1>
     d10:	a0 91 20 04 	lds	r26, 0x0420	; 0x800420 <config_intervalo_aceitavel+0x2>
     d14:	b0 91 21 04 	lds	r27, 0x0421	; 0x800421 <config_intervalo_aceitavel+0x3>
     d18:	ea ee       	ldi	r30, 0xEA	; 234
     d1a:	f3 e0       	ldi	r31, 0x03	; 3
     d1c:	82 a7       	std	Z+42, r24	; 0x2a
     d1e:	93 a7       	std	Z+43, r25	; 0x2b
     d20:	a4 a7       	std	Z+44, r26	; 0x2c
     d22:	b5 a7       	std	Z+45, r27	; 0x2d
			temp.range.max = faixa_de_operacao.temperatura.max;
     d24:	80 91 3a 04 	lds	r24, 0x043A	; 0x80043a <faixa_de_operacao+0x4>
     d28:	90 91 3b 04 	lds	r25, 0x043B	; 0x80043b <faixa_de_operacao+0x5>
     d2c:	a0 91 3c 04 	lds	r26, 0x043C	; 0x80043c <faixa_de_operacao+0x6>
     d30:	b0 91 3d 04 	lds	r27, 0x043D	; 0x80043d <faixa_de_operacao+0x7>
     d34:	86 a7       	std	Z+46, r24	; 0x2e
     d36:	97 a7       	std	Z+47, r25	; 0x2f
     d38:	a0 ab       	std	Z+48, r26	; 0x30
     d3a:	b1 ab       	std	Z+49, r27	; 0x31
		}
		
		// Valor medido
		edicao.valor = valor_medido(medicao_ADC.entrada_usuario.potenciometro,
     d3c:	60 91 54 04 	lds	r22, 0x0454	; 0x800454 <medicao_ADC+0x6>
     d40:	70 91 55 04 	lds	r23, 0x0455	; 0x800455 <medicao_ADC+0x7>
     d44:	c4 e1       	ldi	r28, 0x14	; 20
     d46:	d4 e0       	ldi	r29, 0x04	; 4
     d48:	80 e0       	ldi	r24, 0x00	; 0
     d4a:	90 e0       	ldi	r25, 0x00	; 0
     d4c:	0e 94 74 0d 	call	0x1ae8	; 0x1ae8 <__floatunsisf>
     d50:	e8 80       	ld	r14, Y
     d52:	f9 80       	ldd	r15, Y+1	; 0x01
     d54:	0a 81       	ldd	r16, Y+2	; 0x02
     d56:	1b 81       	ldd	r17, Y+3	; 0x03
     d58:	2c 81       	ldd	r18, Y+4	; 0x04
     d5a:	3d 81       	ldd	r19, Y+5	; 0x05
     d5c:	4e 81       	ldd	r20, Y+6	; 0x06
     d5e:	5f 81       	ldd	r21, Y+7	; 0x07
     d60:	0e 94 70 03 	call	0x6e0	; 0x6e0 <valor_medido>
     d64:	4b 01       	movw	r8, r22
     d66:	5c 01       	movw	r10, r24
     d68:	60 93 e2 03 	sts	0x03E2, r22	; 0x8003e2 <edicao+0x5>
     d6c:	70 93 e3 03 	sts	0x03E3, r23	; 0x8003e3 <edicao+0x6>
     d70:	80 93 e4 03 	sts	0x03E4, r24	; 0x8003e4 <edicao+0x7>
     d74:	90 93 e5 03 	sts	0x03E5, r25	; 0x8003e5 <edicao+0x8>
		temp.range);
		snprintf(temp.buf, tam_vetor, "%d,%d C", (int)(edicao.valor),
		(int)(edicao.valor - ((int)edicao.valor) ) * 100);
     d78:	0e 94 3e 0d 	call	0x1a7c	; 0x1a7c <__fixsfsi>
     d7c:	6b 01       	movw	r12, r22
     d7e:	7c 01       	movw	r14, r24
     d80:	07 2e       	mov	r0, r23
     d82:	00 0c       	add	r0, r0
     d84:	88 0b       	sbc	r24, r24
     d86:	99 0b       	sbc	r25, r25
     d88:	0e 94 76 0d 	call	0x1aec	; 0x1aec <__floatsisf>
     d8c:	9b 01       	movw	r18, r22
     d8e:	ac 01       	movw	r20, r24
     d90:	c5 01       	movw	r24, r10
     d92:	b4 01       	movw	r22, r8
     d94:	0e 94 5a 0c 	call	0x18b4	; 0x18b4 <__subsf3>
     d98:	0e 94 3e 0d 	call	0x1a7c	; 0x1a7c <__fixsfsi>
		}
		
		// Valor medido
		edicao.valor = valor_medido(medicao_ADC.entrada_usuario.potenciometro,
		temp.range);
		snprintf(temp.buf, tam_vetor, "%d,%d C", (int)(edicao.valor),
     d9c:	24 e6       	ldi	r18, 0x64	; 100
     d9e:	26 9f       	mul	r18, r22
     da0:	a0 01       	movw	r20, r0
     da2:	27 9f       	mul	r18, r23
     da4:	50 0d       	add	r21, r0
     da6:	11 24       	eor	r1, r1
     da8:	5f 93       	push	r21
     daa:	4f 93       	push	r20
     dac:	df 92       	push	r13
     dae:	cf 92       	push	r12
     db0:	8c e3       	ldi	r24, 0x3C	; 60
     db2:	91 e0       	ldi	r25, 0x01	; 1
     db4:	9f 93       	push	r25
     db6:	8f 93       	push	r24
     db8:	1f 92       	push	r1
     dba:	8f e0       	ldi	r24, 0x0F	; 15
     dbc:	8f 93       	push	r24
     dbe:	86 ef       	ldi	r24, 0xF6	; 246
     dc0:	93 e0       	ldi	r25, 0x03	; 3
     dc2:	9f 93       	push	r25
     dc4:	8f 93       	push	r24
     dc6:	0e 94 a4 0e 	call	0x1d48	; 0x1d48 <snprintf>
     dca:	8d b7       	in	r24, 0x3d	; 61
     dcc:	9e b7       	in	r25, 0x3e	; 62
     dce:	0a 96       	adiw	r24, 0x0a	; 10
     dd0:	0f b6       	in	r0, 0x3f	; 63
     dd2:	f8 94       	cli
     dd4:	9e bf       	out	0x3e, r25	; 62
     dd6:	0f be       	out	0x3f, r0	; 63
     dd8:	8d bf       	out	0x3d, r24	; 61
     dda:	77 c0       	rjmp	.+238    	; 0xeca <editar_valor+0x368>
		(int)(edicao.valor - ((int)edicao.valor) ) * 100);
		}else{
		snprintf(temp.buf2, tam_vetor, "Radiacao Solar");
     ddc:	8f e0       	ldi	r24, 0x0F	; 15
     dde:	e6 ec       	ldi	r30, 0xC6	; 198
     de0:	f1 e0       	ldi	r31, 0x01	; 1
     de2:	a5 e0       	ldi	r26, 0x05	; 5
     de4:	b4 e0       	ldi	r27, 0x04	; 4
     de6:	01 90       	ld	r0, Z+
     de8:	0d 92       	st	X+, r0
     dea:	8a 95       	dec	r24
     dec:	e1 f7       	brne	.-8      	; 0xde6 <editar_valor+0x284>
		
		// Definição do range
		if (edicao.tela_antiga == 2) // min
     dee:	80 91 e1 03 	lds	r24, 0x03E1	; 0x8003e1 <edicao+0x4>
     df2:	82 30       	cpi	r24, 0x02	; 2
     df4:	d9 f4       	brne	.+54     	; 0xe2c <editar_valor+0x2ca>
		{
			temp.range.min = faixa_de_operacao.radiacao_solar.min;
     df6:	80 91 46 04 	lds	r24, 0x0446	; 0x800446 <faixa_de_operacao+0x10>
     dfa:	90 91 47 04 	lds	r25, 0x0447	; 0x800447 <faixa_de_operacao+0x11>
     dfe:	a0 91 48 04 	lds	r26, 0x0448	; 0x800448 <faixa_de_operacao+0x12>
     e02:	b0 91 49 04 	lds	r27, 0x0449	; 0x800449 <faixa_de_operacao+0x13>
     e06:	ea ee       	ldi	r30, 0xEA	; 234
     e08:	f3 e0       	ldi	r31, 0x03	; 3
     e0a:	82 a7       	std	Z+42, r24	; 0x2a
     e0c:	93 a7       	std	Z+43, r25	; 0x2b
     e0e:	a4 a7       	std	Z+44, r26	; 0x2c
     e10:	b5 a7       	std	Z+45, r27	; 0x2d
			temp.range.max = config_intervalo_aceitavel.radiacao_solar.max;
     e12:	80 91 32 04 	lds	r24, 0x0432	; 0x800432 <config_intervalo_aceitavel+0x14>
     e16:	90 91 33 04 	lds	r25, 0x0433	; 0x800433 <config_intervalo_aceitavel+0x15>
     e1a:	a0 91 34 04 	lds	r26, 0x0434	; 0x800434 <config_intervalo_aceitavel+0x16>
     e1e:	b0 91 35 04 	lds	r27, 0x0435	; 0x800435 <config_intervalo_aceitavel+0x17>
     e22:	86 a7       	std	Z+46, r24	; 0x2e
     e24:	97 a7       	std	Z+47, r25	; 0x2f
     e26:	a0 ab       	std	Z+48, r26	; 0x30
     e28:	b1 ab       	std	Z+49, r27	; 0x31
     e2a:	1a c0       	rjmp	.+52     	; 0xe60 <editar_valor+0x2fe>
			}else{
			temp.range.min = config_intervalo_aceitavel.radiacao_solar.min;
     e2c:	80 91 2e 04 	lds	r24, 0x042E	; 0x80042e <config_intervalo_aceitavel+0x10>
     e30:	90 91 2f 04 	lds	r25, 0x042F	; 0x80042f <config_intervalo_aceitavel+0x11>
     e34:	a0 91 30 04 	lds	r26, 0x0430	; 0x800430 <config_intervalo_aceitavel+0x12>
     e38:	b0 91 31 04 	lds	r27, 0x0431	; 0x800431 <config_intervalo_aceitavel+0x13>
     e3c:	ea ee       	ldi	r30, 0xEA	; 234
     e3e:	f3 e0       	ldi	r31, 0x03	; 3
     e40:	82 a7       	std	Z+42, r24	; 0x2a
     e42:	93 a7       	std	Z+43, r25	; 0x2b
     e44:	a4 a7       	std	Z+44, r26	; 0x2c
     e46:	b5 a7       	std	Z+45, r27	; 0x2d
			temp.range.max = faixa_de_operacao.radiacao_solar.max;
     e48:	80 91 4a 04 	lds	r24, 0x044A	; 0x80044a <faixa_de_operacao+0x14>
     e4c:	90 91 4b 04 	lds	r25, 0x044B	; 0x80044b <faixa_de_operacao+0x15>
     e50:	a0 91 4c 04 	lds	r26, 0x044C	; 0x80044c <faixa_de_operacao+0x16>
     e54:	b0 91 4d 04 	lds	r27, 0x044D	; 0x80044d <faixa_de_operacao+0x17>
     e58:	86 a7       	std	Z+46, r24	; 0x2e
     e5a:	97 a7       	std	Z+47, r25	; 0x2f
     e5c:	a0 ab       	std	Z+48, r26	; 0x30
     e5e:	b1 ab       	std	Z+49, r27	; 0x31
		}
		
		// Valor medido
		edicao.valor = valor_medido(medicao_ADC.entrada_usuario.potenciometro,
     e60:	60 91 54 04 	lds	r22, 0x0454	; 0x800454 <medicao_ADC+0x6>
     e64:	70 91 55 04 	lds	r23, 0x0455	; 0x800455 <medicao_ADC+0x7>
     e68:	c4 e1       	ldi	r28, 0x14	; 20
     e6a:	d4 e0       	ldi	r29, 0x04	; 4
     e6c:	80 e0       	ldi	r24, 0x00	; 0
     e6e:	90 e0       	ldi	r25, 0x00	; 0
     e70:	0e 94 74 0d 	call	0x1ae8	; 0x1ae8 <__floatunsisf>
     e74:	e8 80       	ld	r14, Y
     e76:	f9 80       	ldd	r15, Y+1	; 0x01
     e78:	0a 81       	ldd	r16, Y+2	; 0x02
     e7a:	1b 81       	ldd	r17, Y+3	; 0x03
     e7c:	2c 81       	ldd	r18, Y+4	; 0x04
     e7e:	3d 81       	ldd	r19, Y+5	; 0x05
     e80:	4e 81       	ldd	r20, Y+6	; 0x06
     e82:	5f 81       	ldd	r21, Y+7	; 0x07
     e84:	0e 94 70 03 	call	0x6e0	; 0x6e0 <valor_medido>
     e88:	60 93 e2 03 	sts	0x03E2, r22	; 0x8003e2 <edicao+0x5>
     e8c:	70 93 e3 03 	sts	0x03E3, r23	; 0x8003e3 <edicao+0x6>
     e90:	80 93 e4 03 	sts	0x03E4, r24	; 0x8003e4 <edicao+0x7>
     e94:	90 93 e5 03 	sts	0x03E5, r25	; 0x8003e5 <edicao+0x8>
		temp.range);
		snprintf(temp.buf, tam_vetor, "%d W/ft2", (int)(edicao.valor));
     e98:	0e 94 3e 0d 	call	0x1a7c	; 0x1a7c <__fixsfsi>
     e9c:	7f 93       	push	r23
     e9e:	6f 93       	push	r22
     ea0:	8b e5       	ldi	r24, 0x5B	; 91
     ea2:	91 e0       	ldi	r25, 0x01	; 1
     ea4:	9f 93       	push	r25
     ea6:	8f 93       	push	r24
     ea8:	1f 92       	push	r1
     eaa:	8f e0       	ldi	r24, 0x0F	; 15
     eac:	8f 93       	push	r24
     eae:	86 ef       	ldi	r24, 0xF6	; 246
     eb0:	93 e0       	ldi	r25, 0x03	; 3
     eb2:	9f 93       	push	r25
     eb4:	8f 93       	push	r24
     eb6:	0e 94 a4 0e 	call	0x1d48	; 0x1d48 <snprintf>
     eba:	8d b7       	in	r24, 0x3d	; 61
     ebc:	9e b7       	in	r25, 0x3e	; 62
     ebe:	08 96       	adiw	r24, 0x08	; 8
     ec0:	0f b6       	in	r0, 0x3f	; 63
     ec2:	f8 94       	cli
     ec4:	9e bf       	out	0x3e, r25	; 62
     ec6:	0f be       	out	0x3f, r0	; 63
     ec8:	8d bf       	out	0x3d, r24	; 61
	}
	
	nokia_lcd_clear(); //Limpa o LCD
     eca:	0e 94 39 0b 	call	0x1672	; 0x1672 <nokia_lcd_clear>
	
	nokia_lcd_write_string("Modo de Edicao", 1);
     ece:	61 e0       	ldi	r22, 0x01	; 1
     ed0:	8f ea       	ldi	r24, 0xAF	; 175
     ed2:	91 e0       	ldi	r25, 0x01	; 1
     ed4:	0e 94 01 0c 	call	0x1802	; 0x1802 <nokia_lcd_write_string>
	nokia_lcd_set_cursor(0, 10);
     ed8:	6a e0       	ldi	r22, 0x0A	; 10
     eda:	80 e0       	ldi	r24, 0x00	; 0
     edc:	0e 94 12 0c 	call	0x1824	; 0x1824 <nokia_lcd_set_cursor>
	nokia_lcd_write_string(temp.buf2, 1);
     ee0:	61 e0       	ldi	r22, 0x01	; 1
     ee2:	85 e0       	ldi	r24, 0x05	; 5
     ee4:	94 e0       	ldi	r25, 0x04	; 4
     ee6:	0e 94 01 0c 	call	0x1802	; 0x1802 <nokia_lcd_write_string>
	nokia_lcd_set_cursor(0, 30);
     eea:	6e e1       	ldi	r22, 0x1E	; 30
     eec:	80 e0       	ldi	r24, 0x00	; 0
     eee:	0e 94 12 0c 	call	0x1824	; 0x1824 <nokia_lcd_set_cursor>
	nokia_lcd_write_string("Valor: ", 1);
     ef2:	61 e0       	ldi	r22, 0x01	; 1
     ef4:	8e eb       	ldi	r24, 0xBE	; 190
     ef6:	91 e0       	ldi	r25, 0x01	; 1
     ef8:	0e 94 01 0c 	call	0x1802	; 0x1802 <nokia_lcd_write_string>
	nokia_lcd_write_string(temp.buf, 1);
     efc:	61 e0       	ldi	r22, 0x01	; 1
     efe:	86 ef       	ldi	r24, 0xF6	; 246
     f00:	93 e0       	ldi	r25, 0x03	; 3
     f02:	0e 94 01 0c 	call	0x1802	; 0x1802 <nokia_lcd_write_string>
	nokia_lcd_render();
     f06:	0e 94 17 0c 	call	0x182e	; 0x182e <nokia_lcd_render>
}
     f0a:	df 91       	pop	r29
     f0c:	cf 91       	pop	r28
     f0e:	1f 91       	pop	r17
     f10:	0f 91       	pop	r16
     f12:	ff 90       	pop	r15
     f14:	ef 90       	pop	r14
     f16:	df 90       	pop	r13
     f18:	cf 90       	pop	r12
     f1a:	bf 90       	pop	r11
     f1c:	af 90       	pop	r10
     f1e:	9f 90       	pop	r9
     f20:	8f 90       	pop	r8
     f22:	08 95       	ret

00000f24 <reset_edicao>:
	atualizar_tela();
}

// Funções para iniciar as estruturas de dados
void reset_edicao(){
	edicao.esta_editando = 0;
     f24:	ed ed       	ldi	r30, 0xDD	; 221
     f26:	f3 e0       	ldi	r31, 0x03	; 3
     f28:	10 82       	st	Z, r1
	edicao.esta_editando_temperatura = 0;
     f2a:	11 82       	std	Z+1, r1	; 0x01
	edicao.esta_editando_umidade = 0;
     f2c:	12 82       	std	Z+2, r1	; 0x02
	edicao.esta_editando_radiacao_solar = 0;
     f2e:	13 82       	std	Z+3, r1	; 0x03
	edicao.tela_antiga = 1;
     f30:	81 e0       	ldi	r24, 0x01	; 1
     f32:	84 83       	std	Z+4, r24	; 0x04
	edicao.valor = 0;
     f34:	15 82       	std	Z+5, r1	; 0x05
     f36:	16 82       	std	Z+6, r1	; 0x06
     f38:	17 82       	std	Z+7, r1	; 0x07
     f3a:	10 86       	std	Z+8, r1	; 0x08
     f3c:	08 95       	ret

00000f3e <salvar_valor>:
}

// salvar_valor
// Atualiza os dados de configuração da faixa de operação do sistema do usuário
void salvar_valor(){
	TELA.pagina_atual = edicao.tela_antiga;
     f3e:	ed ed       	ldi	r30, 0xDD	; 221
     f40:	f3 e0       	ldi	r31, 0x03	; 3
     f42:	84 81       	ldd	r24, Z+4	; 0x04
     f44:	80 93 56 04 	sts	0x0456, r24	; 0x800456 <TELA>
	
	if (edicao.esta_editando_umidade == 1){
     f48:	92 81       	ldd	r25, Z+2	; 0x02
     f4a:	91 30       	cpi	r25, 0x01	; 1
     f4c:	21 f5       	brne	.+72     	; 0xf96 <salvar_valor+0x58>
		if (edicao.tela_antiga == 2) // min
     f4e:	82 30       	cpi	r24, 0x02	; 2
     f50:	89 f4       	brne	.+34     	; 0xf74 <salvar_valor+0x36>
		{
			config_intervalo_aceitavel.umidade.min = edicao.valor;
     f52:	80 91 e2 03 	lds	r24, 0x03E2	; 0x8003e2 <edicao+0x5>
     f56:	90 91 e3 03 	lds	r25, 0x03E3	; 0x8003e3 <edicao+0x6>
     f5a:	a0 91 e4 03 	lds	r26, 0x03E4	; 0x8003e4 <edicao+0x7>
     f5e:	b0 91 e5 03 	lds	r27, 0x03E5	; 0x8003e5 <edicao+0x8>
     f62:	80 93 26 04 	sts	0x0426, r24	; 0x800426 <config_intervalo_aceitavel+0x8>
     f66:	90 93 27 04 	sts	0x0427, r25	; 0x800427 <config_intervalo_aceitavel+0x9>
     f6a:	a0 93 28 04 	sts	0x0428, r26	; 0x800428 <config_intervalo_aceitavel+0xa>
     f6e:	b0 93 29 04 	sts	0x0429, r27	; 0x800429 <config_intervalo_aceitavel+0xb>
     f72:	5c c0       	rjmp	.+184    	; 0x102c <salvar_valor+0xee>
			}else{
			config_intervalo_aceitavel.umidade.max = edicao.valor;
     f74:	80 91 e2 03 	lds	r24, 0x03E2	; 0x8003e2 <edicao+0x5>
     f78:	90 91 e3 03 	lds	r25, 0x03E3	; 0x8003e3 <edicao+0x6>
     f7c:	a0 91 e4 03 	lds	r26, 0x03E4	; 0x8003e4 <edicao+0x7>
     f80:	b0 91 e5 03 	lds	r27, 0x03E5	; 0x8003e5 <edicao+0x8>
     f84:	80 93 2a 04 	sts	0x042A, r24	; 0x80042a <config_intervalo_aceitavel+0xc>
     f88:	90 93 2b 04 	sts	0x042B, r25	; 0x80042b <config_intervalo_aceitavel+0xd>
     f8c:	a0 93 2c 04 	sts	0x042C, r26	; 0x80042c <config_intervalo_aceitavel+0xe>
     f90:	b0 93 2d 04 	sts	0x042D, r27	; 0x80042d <config_intervalo_aceitavel+0xf>
     f94:	4b c0       	rjmp	.+150    	; 0x102c <salvar_valor+0xee>
		}
		}else if (edicao.esta_editando_temperatura == 1){
     f96:	90 91 de 03 	lds	r25, 0x03DE	; 0x8003de <edicao+0x1>
     f9a:	91 30       	cpi	r25, 0x01	; 1
     f9c:	21 f5       	brne	.+72     	; 0xfe6 <salvar_valor+0xa8>
		if (edicao.tela_antiga == 2) // min
     f9e:	82 30       	cpi	r24, 0x02	; 2
     fa0:	89 f4       	brne	.+34     	; 0xfc4 <salvar_valor+0x86>
		{
			config_intervalo_aceitavel.temperatura.min = edicao.valor;
     fa2:	80 91 e2 03 	lds	r24, 0x03E2	; 0x8003e2 <edicao+0x5>
     fa6:	90 91 e3 03 	lds	r25, 0x03E3	; 0x8003e3 <edicao+0x6>
     faa:	a0 91 e4 03 	lds	r26, 0x03E4	; 0x8003e4 <edicao+0x7>
     fae:	b0 91 e5 03 	lds	r27, 0x03E5	; 0x8003e5 <edicao+0x8>
     fb2:	80 93 1e 04 	sts	0x041E, r24	; 0x80041e <config_intervalo_aceitavel>
     fb6:	90 93 1f 04 	sts	0x041F, r25	; 0x80041f <config_intervalo_aceitavel+0x1>
     fba:	a0 93 20 04 	sts	0x0420, r26	; 0x800420 <config_intervalo_aceitavel+0x2>
     fbe:	b0 93 21 04 	sts	0x0421, r27	; 0x800421 <config_intervalo_aceitavel+0x3>
     fc2:	34 c0       	rjmp	.+104    	; 0x102c <salvar_valor+0xee>
			}else{
			config_intervalo_aceitavel.temperatura.max = edicao.valor;
     fc4:	80 91 e2 03 	lds	r24, 0x03E2	; 0x8003e2 <edicao+0x5>
     fc8:	90 91 e3 03 	lds	r25, 0x03E3	; 0x8003e3 <edicao+0x6>
     fcc:	a0 91 e4 03 	lds	r26, 0x03E4	; 0x8003e4 <edicao+0x7>
     fd0:	b0 91 e5 03 	lds	r27, 0x03E5	; 0x8003e5 <edicao+0x8>
     fd4:	80 93 22 04 	sts	0x0422, r24	; 0x800422 <config_intervalo_aceitavel+0x4>
     fd8:	90 93 23 04 	sts	0x0423, r25	; 0x800423 <config_intervalo_aceitavel+0x5>
     fdc:	a0 93 24 04 	sts	0x0424, r26	; 0x800424 <config_intervalo_aceitavel+0x6>
     fe0:	b0 93 25 04 	sts	0x0425, r27	; 0x800425 <config_intervalo_aceitavel+0x7>
     fe4:	23 c0       	rjmp	.+70     	; 0x102c <salvar_valor+0xee>
		}
		}else{
		if (edicao.tela_antiga == 2) // min
     fe6:	82 30       	cpi	r24, 0x02	; 2
     fe8:	89 f4       	brne	.+34     	; 0x100c <salvar_valor+0xce>
		{
			config_intervalo_aceitavel.radiacao_solar.min = edicao.valor;
     fea:	80 91 e2 03 	lds	r24, 0x03E2	; 0x8003e2 <edicao+0x5>
     fee:	90 91 e3 03 	lds	r25, 0x03E3	; 0x8003e3 <edicao+0x6>
     ff2:	a0 91 e4 03 	lds	r26, 0x03E4	; 0x8003e4 <edicao+0x7>
     ff6:	b0 91 e5 03 	lds	r27, 0x03E5	; 0x8003e5 <edicao+0x8>
     ffa:	80 93 2e 04 	sts	0x042E, r24	; 0x80042e <config_intervalo_aceitavel+0x10>
     ffe:	90 93 2f 04 	sts	0x042F, r25	; 0x80042f <config_intervalo_aceitavel+0x11>
    1002:	a0 93 30 04 	sts	0x0430, r26	; 0x800430 <config_intervalo_aceitavel+0x12>
    1006:	b0 93 31 04 	sts	0x0431, r27	; 0x800431 <config_intervalo_aceitavel+0x13>
    100a:	10 c0       	rjmp	.+32     	; 0x102c <salvar_valor+0xee>
			}else{
			config_intervalo_aceitavel.radiacao_solar.max = edicao.valor;
    100c:	80 91 e2 03 	lds	r24, 0x03E2	; 0x8003e2 <edicao+0x5>
    1010:	90 91 e3 03 	lds	r25, 0x03E3	; 0x8003e3 <edicao+0x6>
    1014:	a0 91 e4 03 	lds	r26, 0x03E4	; 0x8003e4 <edicao+0x7>
    1018:	b0 91 e5 03 	lds	r27, 0x03E5	; 0x8003e5 <edicao+0x8>
    101c:	80 93 32 04 	sts	0x0432, r24	; 0x800432 <config_intervalo_aceitavel+0x14>
    1020:	90 93 33 04 	sts	0x0433, r25	; 0x800433 <config_intervalo_aceitavel+0x15>
    1024:	a0 93 34 04 	sts	0x0434, r26	; 0x800434 <config_intervalo_aceitavel+0x16>
    1028:	b0 93 35 04 	sts	0x0435, r27	; 0x800435 <config_intervalo_aceitavel+0x17>
		}
	}
	reset_edicao();
    102c:	0e 94 92 07 	call	0xf24	; 0xf24 <reset_edicao>
    1030:	08 95       	ret

00001032 <reset_medicao_ADC>:
	edicao.tela_antiga = 1;
	edicao.valor = 0;
}

void reset_medicao_ADC(){
	medicao_ADC.entrada_usuario.potenciometro = 0;
    1032:	ee e4       	ldi	r30, 0x4E	; 78
    1034:	f4 e0       	ldi	r31, 0x04	; 4
    1036:	17 82       	std	Z+7, r1	; 0x07
    1038:	16 82       	std	Z+6, r1	; 0x06
	medicao_ADC.sensor.temperatura = 0;
    103a:	11 82       	std	Z+1, r1	; 0x01
    103c:	10 82       	st	Z, r1
	medicao_ADC.sensor.umidade = 0;
    103e:	13 82       	std	Z+3, r1	; 0x03
    1040:	12 82       	std	Z+2, r1	; 0x02
	medicao_ADC.sensor.radiacao_solar = 0;
    1042:	15 82       	std	Z+5, r1	; 0x05
    1044:	14 82       	std	Z+4, r1	; 0x04
    1046:	08 95       	ret

00001048 <reset_valores_atuais>:
}

void reset_valores_atuais(){
	valores_atuais.temperatura = 0;
    1048:	e1 ed       	ldi	r30, 0xD1	; 209
    104a:	f3 e0       	ldi	r31, 0x03	; 3
    104c:	10 82       	st	Z, r1
    104e:	11 82       	std	Z+1, r1	; 0x01
    1050:	12 82       	std	Z+2, r1	; 0x02
    1052:	13 82       	std	Z+3, r1	; 0x03
	valores_atuais.umidade = 0;
    1054:	14 82       	std	Z+4, r1	; 0x04
    1056:	15 82       	std	Z+5, r1	; 0x05
    1058:	16 82       	std	Z+6, r1	; 0x06
    105a:	17 82       	std	Z+7, r1	; 0x07
	valores_atuais.radiacao_solar = 0;
    105c:	10 86       	std	Z+8, r1	; 0x08
    105e:	11 86       	std	Z+9, r1	; 0x09
    1060:	12 86       	std	Z+10, r1	; 0x0a
    1062:	13 86       	std	Z+11, r1	; 0x0b
    1064:	08 95       	ret

00001066 <reset_config_intervalo_aceitavel>:
}

void reset_config_intervalo_aceitavel(){
	config_intervalo_aceitavel.temperatura.min = 25.0;
    1066:	ee e1       	ldi	r30, 0x1E	; 30
    1068:	f4 e0       	ldi	r31, 0x04	; 4
    106a:	80 e0       	ldi	r24, 0x00	; 0
    106c:	90 e0       	ldi	r25, 0x00	; 0
    106e:	a8 ec       	ldi	r26, 0xC8	; 200
    1070:	b1 e4       	ldi	r27, 0x41	; 65
    1072:	80 83       	st	Z, r24
    1074:	91 83       	std	Z+1, r25	; 0x01
    1076:	a2 83       	std	Z+2, r26	; 0x02
    1078:	b3 83       	std	Z+3, r27	; 0x03
	config_intervalo_aceitavel.temperatura.max = 40.0;
    107a:	80 e0       	ldi	r24, 0x00	; 0
    107c:	90 e0       	ldi	r25, 0x00	; 0
    107e:	a0 e2       	ldi	r26, 0x20	; 32
    1080:	b2 e4       	ldi	r27, 0x42	; 66
    1082:	84 83       	std	Z+4, r24	; 0x04
    1084:	95 83       	std	Z+5, r25	; 0x05
    1086:	a6 83       	std	Z+6, r26	; 0x06
    1088:	b7 83       	std	Z+7, r27	; 0x07

	config_intervalo_aceitavel.umidade.min = 50.0;
    108a:	80 e0       	ldi	r24, 0x00	; 0
    108c:	90 e0       	ldi	r25, 0x00	; 0
    108e:	a8 e4       	ldi	r26, 0x48	; 72
    1090:	b2 e4       	ldi	r27, 0x42	; 66
    1092:	80 87       	std	Z+8, r24	; 0x08
    1094:	91 87       	std	Z+9, r25	; 0x09
    1096:	a2 87       	std	Z+10, r26	; 0x0a
    1098:	b3 87       	std	Z+11, r27	; 0x0b
	config_intervalo_aceitavel.umidade.max = 80.0;
    109a:	80 e0       	ldi	r24, 0x00	; 0
    109c:	90 e0       	ldi	r25, 0x00	; 0
    109e:	a0 ea       	ldi	r26, 0xA0	; 160
    10a0:	b2 e4       	ldi	r27, 0x42	; 66
    10a2:	84 87       	std	Z+12, r24	; 0x0c
    10a4:	95 87       	std	Z+13, r25	; 0x0d
    10a6:	a6 87       	std	Z+14, r26	; 0x0e
    10a8:	b7 87       	std	Z+15, r27	; 0x0f

	config_intervalo_aceitavel.radiacao_solar.min = 30.0;
    10aa:	40 e0       	ldi	r20, 0x00	; 0
    10ac:	50 e0       	ldi	r21, 0x00	; 0
    10ae:	60 ef       	ldi	r22, 0xF0	; 240
    10b0:	71 e4       	ldi	r23, 0x41	; 65
    10b2:	40 8b       	std	Z+16, r20	; 0x10
    10b4:	51 8b       	std	Z+17, r21	; 0x11
    10b6:	62 8b       	std	Z+18, r22	; 0x12
    10b8:	73 8b       	std	Z+19, r23	; 0x13
	config_intervalo_aceitavel.radiacao_solar.max = 80.0;
    10ba:	84 8b       	std	Z+20, r24	; 0x14
    10bc:	95 8b       	std	Z+21, r25	; 0x15
    10be:	a6 8b       	std	Z+22, r26	; 0x16
    10c0:	b7 8b       	std	Z+23, r27	; 0x17
    10c2:	08 95       	ret

000010c4 <reset_faixa_de_operacao>:
}

void reset_faixa_de_operacao(){
	faixa_de_operacao.temperatura.min = -20.0;
    10c4:	e6 e3       	ldi	r30, 0x36	; 54
    10c6:	f4 e0       	ldi	r31, 0x04	; 4
    10c8:	80 e0       	ldi	r24, 0x00	; 0
    10ca:	90 e0       	ldi	r25, 0x00	; 0
    10cc:	a0 ea       	ldi	r26, 0xA0	; 160
    10ce:	b1 ec       	ldi	r27, 0xC1	; 193
    10d0:	80 83       	st	Z, r24
    10d2:	91 83       	std	Z+1, r25	; 0x01
    10d4:	a2 83       	std	Z+2, r26	; 0x02
    10d6:	b3 83       	std	Z+3, r27	; 0x03
	faixa_de_operacao.temperatura.max = 80.0;
    10d8:	80 e0       	ldi	r24, 0x00	; 0
    10da:	90 e0       	ldi	r25, 0x00	; 0
    10dc:	a0 ea       	ldi	r26, 0xA0	; 160
    10de:	b2 e4       	ldi	r27, 0x42	; 66
    10e0:	84 83       	std	Z+4, r24	; 0x04
    10e2:	95 83       	std	Z+5, r25	; 0x05
    10e4:	a6 83       	std	Z+6, r26	; 0x06
    10e6:	b7 83       	std	Z+7, r27	; 0x07

	faixa_de_operacao.umidade.min = 0.0;
    10e8:	10 86       	std	Z+8, r1	; 0x08
    10ea:	11 86       	std	Z+9, r1	; 0x09
    10ec:	12 86       	std	Z+10, r1	; 0x0a
    10ee:	13 86       	std	Z+11, r1	; 0x0b
	faixa_de_operacao.umidade.max = 100.0;
    10f0:	80 e0       	ldi	r24, 0x00	; 0
    10f2:	90 e0       	ldi	r25, 0x00	; 0
    10f4:	a8 ec       	ldi	r26, 0xC8	; 200
    10f6:	b2 e4       	ldi	r27, 0x42	; 66
    10f8:	84 87       	std	Z+12, r24	; 0x0c
    10fa:	95 87       	std	Z+13, r25	; 0x0d
    10fc:	a6 87       	std	Z+14, r26	; 0x0e
    10fe:	b7 87       	std	Z+15, r27	; 0x0f

	faixa_de_operacao.radiacao_solar.min = 0.0;
    1100:	10 8a       	std	Z+16, r1	; 0x10
    1102:	11 8a       	std	Z+17, r1	; 0x11
    1104:	12 8a       	std	Z+18, r1	; 0x12
    1106:	13 8a       	std	Z+19, r1	; 0x13
	faixa_de_operacao.radiacao_solar.max = 100.0;
    1108:	84 8b       	std	Z+20, r24	; 0x14
    110a:	95 8b       	std	Z+21, r25	; 0x15
    110c:	a6 8b       	std	Z+22, r26	; 0x16
    110e:	b7 8b       	std	Z+23, r27	; 0x17
    1110:	08 95       	ret

00001112 <reset_status_dos_atuadores>:
}

void reset_status_dos_atuadores(){
	status.bombda_dagua = 0;
    1112:	e8 e5       	ldi	r30, 0x58	; 88
    1114:	f4 e0       	ldi	r31, 0x04	; 4
    1116:	10 82       	st	Z, r1
	status.ar_condicionado = 0;
    1118:	11 82       	std	Z+1, r1	; 0x01
	status.LED = 0;
    111a:	12 82       	std	Z+2, r1	; 0x02
	status.Teto = 1;
    111c:	81 e0       	ldi	r24, 0x01	; 1
    111e:	83 83       	std	Z+3, r24	; 0x03
    1120:	08 95       	ret

00001122 <reset_flags_das_interrupcoes>:
}

void reset_flags_das_interrupcoes(){
	temp_interrupcao.b6 = 0;
    1122:	e6 ee       	ldi	r30, 0xE6	; 230
    1124:	f3 e0       	ldi	r31, 0x03	; 3
    1126:	13 82       	std	Z+3, r1	; 0x03
	temp_interrupcao.d2 = 0;
    1128:	10 82       	st	Z, r1
	temp_interrupcao.d3 = 0;
    112a:	11 82       	std	Z+1, r1	; 0x01
	temp_interrupcao.d4 = 0;
    112c:	12 82       	std	Z+2, r1	; 0x02
    112e:	08 95       	ret

00001130 <reset_historico_de_portas>:
}

void reset_historico_de_portas(){
	historico_da_porta.D = 0xFF;
    1130:	ec e1       	ldi	r30, 0x1C	; 28
    1132:	f4 e0       	ldi	r31, 0x04	; 4
    1134:	8f ef       	ldi	r24, 0xFF	; 255
    1136:	80 83       	st	Z, r24
	historico_da_porta.B = 0xFF;
    1138:	81 83       	std	Z+1, r24	; 0x01
    113a:	08 95       	ret

0000113c <reset_LCD>:
}

void reset_LCD(){
	nokia_lcd_init();
    113c:	0e 94 e1 0a 	call	0x15c2	; 0x15c2 <nokia_lcd_init>
	TELA.pagina_atual = 1;
    1140:	e6 e5       	ldi	r30, 0x56	; 86
    1142:	f4 e0       	ldi	r31, 0x04	; 4
    1144:	81 e0       	ldi	r24, 0x01	; 1
    1146:	80 83       	st	Z, r24
	TELA.pagina_total = TOTAL_PAGINAS;
    1148:	84 e0       	ldi	r24, 0x04	; 4
    114a:	81 83       	std	Z+1, r24	; 0x01
    114c:	08 95       	ret

0000114e <inicializar_PWM>:
}

//inicializar gerador de PWM
void inicializar_PWM(){
	PWM_0_load_top(125);
    114e:	8d e7       	ldi	r24, 0x7D	; 125
    1150:	0e 94 42 0c 	call	0x1884	; 0x1884 <PWM_0_load_top>
    1154:	08 95       	ret

00001156 <iniciar_sistema>:
}

void iniciar_sistema(){
	ADC_0_start_conversion(0);
    1156:	80 e0       	ldi	r24, 0x00	; 0
    1158:	0e 94 3f 02 	call	0x47e	; 0x47e <ADC_0_start_conversion>
	reset_medicao_ADC();                // Iniciar estrutura de dados medicao_ADC
    115c:	0e 94 19 08 	call	0x1032	; 0x1032 <reset_medicao_ADC>
	reset_valores_atuais();             // Iniciar estrutura de dados valores atuais
    1160:	0e 94 24 08 	call	0x1048	; 0x1048 <reset_valores_atuais>
	reset_config_intervalo_aceitavel(); // Iniciar estrutura de dados Config_intervalo_aceitavel
    1164:	0e 94 33 08 	call	0x1066	; 0x1066 <reset_config_intervalo_aceitavel>
	reset_faixa_de_operacao();          // Iniciar estrutura de dados Faixa_de_operacao
    1168:	0e 94 62 08 	call	0x10c4	; 0x10c4 <reset_faixa_de_operacao>
	reset_status_dos_atuadores();       // Iniciar estrutura de dados status dos atuadores
    116c:	0e 94 89 08 	call	0x1112	; 0x1112 <reset_status_dos_atuadores>
	reset_flags_das_interrupcoes();     // Iniciar estrutura de dados flags das interrupcoes
    1170:	0e 94 91 08 	call	0x1122	; 0x1122 <reset_flags_das_interrupcoes>
	reset_edicao();                     // Iniciar estrutura de dados flags da edição
    1174:	0e 94 92 07 	call	0xf24	; 0xf24 <reset_edicao>
	reset_historico_de_portas();        // Iniciar estrutura de dados Historico das portas
    1178:	0e 94 98 08 	call	0x1130	; 0x1130 <reset_historico_de_portas>
	reset_LCD();                        // Iniciar estrutura de dados TELA
    117c:	0e 94 9e 08 	call	0x113c	; 0x113c <reset_LCD>
	inicializar_PWM();
    1180:	0e 94 a7 08 	call	0x114e	; 0x114e <inicializar_PWM>
    1184:	08 95       	ret

00001186 <controle_ar_condicionado>:

//Controle de saídas
//
// controle_ar_condicionado
// Liga o ar se estiver muito quente
void controle_ar_condicionado(){
    1186:	cf 92       	push	r12
    1188:	df 92       	push	r13
    118a:	ef 92       	push	r14
    118c:	ff 92       	push	r15
	if(valores_atuais.temperatura >= config_intervalo_aceitavel.temperatura.max && status.ar_condicionado == 0){
    118e:	c0 90 d1 03 	lds	r12, 0x03D1	; 0x8003d1 <valores_atuais>
    1192:	d0 90 d2 03 	lds	r13, 0x03D2	; 0x8003d2 <valores_atuais+0x1>
    1196:	e0 90 d3 03 	lds	r14, 0x03D3	; 0x8003d3 <valores_atuais+0x2>
    119a:	f0 90 d4 03 	lds	r15, 0x03D4	; 0x8003d4 <valores_atuais+0x3>
    119e:	20 91 22 04 	lds	r18, 0x0422	; 0x800422 <config_intervalo_aceitavel+0x4>
    11a2:	30 91 23 04 	lds	r19, 0x0423	; 0x800423 <config_intervalo_aceitavel+0x5>
    11a6:	40 91 24 04 	lds	r20, 0x0424	; 0x800424 <config_intervalo_aceitavel+0x6>
    11aa:	50 91 25 04 	lds	r21, 0x0425	; 0x800425 <config_intervalo_aceitavel+0x7>
    11ae:	c7 01       	movw	r24, r14
    11b0:	b6 01       	movw	r22, r12
    11b2:	0e 94 26 0e 	call	0x1c4c	; 0x1c4c <__gesf2>
    11b6:	88 23       	and	r24, r24
    11b8:	5c f0       	brlt	.+22     	; 0x11d0 <controle_ar_condicionado+0x4a>
    11ba:	80 91 59 04 	lds	r24, 0x0459	; 0x800459 <status+0x1>
    11be:	81 11       	cpse	r24, r1
    11c0:	07 c0       	rjmp	.+14     	; 0x11d0 <controle_ar_condicionado+0x4a>
		status.ar_condicionado = 1;
    11c2:	81 e0       	ldi	r24, 0x01	; 1
    11c4:	80 93 59 04 	sts	0x0459, r24	; 0x800459 <status+0x1>
 *                  false = Pin level set to "low" state
 */
static inline void PORTB_set_pin_level(const uint8_t pin, const bool level)
{
	if (level) {
		PORTB |= 1 << pin;
    11c8:	85 b1       	in	r24, 0x05	; 5
    11ca:	81 60       	ori	r24, 0x01	; 1
    11cc:	85 b9       	out	0x05, r24	; 5
    11ce:	17 c0       	rjmp	.+46     	; 0x11fe <controle_ar_condicionado+0x78>
		Controle_Ar_condicionado_set_level(true);
	}
	else if(valores_atuais.temperatura < config_intervalo_aceitavel.temperatura.min && status.ar_condicionado == 1){
    11d0:	20 91 1e 04 	lds	r18, 0x041E	; 0x80041e <config_intervalo_aceitavel>
    11d4:	30 91 1f 04 	lds	r19, 0x041F	; 0x80041f <config_intervalo_aceitavel+0x1>
    11d8:	40 91 20 04 	lds	r20, 0x0420	; 0x800420 <config_intervalo_aceitavel+0x2>
    11dc:	50 91 21 04 	lds	r21, 0x0421	; 0x800421 <config_intervalo_aceitavel+0x3>
    11e0:	c7 01       	movw	r24, r14
    11e2:	b6 01       	movw	r22, r12
    11e4:	0e 94 c7 0c 	call	0x198e	; 0x198e <__cmpsf2>
    11e8:	88 23       	and	r24, r24
    11ea:	4c f4       	brge	.+18     	; 0x11fe <controle_ar_condicionado+0x78>
    11ec:	80 91 59 04 	lds	r24, 0x0459	; 0x800459 <status+0x1>
    11f0:	81 30       	cpi	r24, 0x01	; 1
    11f2:	29 f4       	brne	.+10     	; 0x11fe <controle_ar_condicionado+0x78>
		status.ar_condicionado = 0;
    11f4:	10 92 59 04 	sts	0x0459, r1	; 0x800459 <status+0x1>
	} else {
		PORTB &= ~(1 << pin);
    11f8:	85 b1       	in	r24, 0x05	; 5
    11fa:	8e 7f       	andi	r24, 0xFE	; 254
    11fc:	85 b9       	out	0x05, r24	; 5
		Controle_Ar_condicionado_set_level(false);
	}
}
    11fe:	ff 90       	pop	r15
    1200:	ef 90       	pop	r14
    1202:	df 90       	pop	r13
    1204:	cf 90       	pop	r12
    1206:	08 95       	ret

00001208 <controle_motor_teto>:

// controle_motor_teto
// Fecha ou abre o teto dependendo do nível de radiação solar
void controle_motor_teto(){
	//Fechar teto
	if(valores_atuais.radiacao_solar >= config_intervalo_aceitavel.radiacao_solar.max && status.Teto == 1){
    1208:	60 91 d9 03 	lds	r22, 0x03D9	; 0x8003d9 <valores_atuais+0x8>
    120c:	70 91 da 03 	lds	r23, 0x03DA	; 0x8003da <valores_atuais+0x9>
    1210:	80 91 db 03 	lds	r24, 0x03DB	; 0x8003db <valores_atuais+0xa>
    1214:	90 91 dc 03 	lds	r25, 0x03DC	; 0x8003dc <valores_atuais+0xb>
    1218:	20 91 32 04 	lds	r18, 0x0432	; 0x800432 <config_intervalo_aceitavel+0x14>
    121c:	30 91 33 04 	lds	r19, 0x0433	; 0x800433 <config_intervalo_aceitavel+0x15>
    1220:	40 91 34 04 	lds	r20, 0x0434	; 0x800434 <config_intervalo_aceitavel+0x16>
    1224:	50 91 35 04 	lds	r21, 0x0435	; 0x800435 <config_intervalo_aceitavel+0x17>
    1228:	0e 94 26 0e 	call	0x1c4c	; 0x1c4c <__gesf2>
    122c:	88 23       	and	r24, r24
    122e:	ac f0       	brlt	.+42     	; 0x125a <controle_motor_teto+0x52>
    1230:	80 91 5b 04 	lds	r24, 0x045B	; 0x80045b <status+0x3>
    1234:	81 30       	cpi	r24, 0x01	; 1
    1236:	89 f4       	brne	.+34     	; 0x125a <controle_motor_teto+0x52>
		status.Teto = 0; //Teto fechado
    1238:	10 92 5b 04 	sts	0x045B, r1	; 0x80045b <status+0x3>
 *                  false = Pin level set to "low" state
 */
static inline void PORTC_set_pin_level(const uint8_t pin, const bool level)
{
	if (level) {
		PORTC |= 1 << pin;
    123c:	88 b1       	in	r24, 0x08	; 8
    123e:	80 64       	ori	r24, 0x40	; 64
    1240:	88 b9       	out	0x08, r24	; 8
	#else
		//round up by default
		__ticks_dc = (uint32_t)(ceil(fabs(__tmp)));
	#endif

	__builtin_avr_delay_cycles(__ticks_dc);
    1242:	2f ef       	ldi	r18, 0xFF	; 255
    1244:	89 ef       	ldi	r24, 0xF9	; 249
    1246:	90 e0       	ldi	r25, 0x00	; 0
    1248:	21 50       	subi	r18, 0x01	; 1
    124a:	80 40       	sbci	r24, 0x00	; 0
    124c:	90 40       	sbci	r25, 0x00	; 0
    124e:	e1 f7       	brne	.-8      	; 0x1248 <controle_motor_teto+0x40>
    1250:	00 c0       	rjmp	.+0      	; 0x1252 <controle_motor_teto+0x4a>
    1252:	00 00       	nop
	} else {
		PORTC &= ~(1 << pin);
    1254:	88 b1       	in	r24, 0x08	; 8
    1256:	8f 7b       	andi	r24, 0xBF	; 191
    1258:	88 b9       	out	0x08, r24	; 8
		Controle_Motor_Teto_set_level(true); //LED/Comando
		_delay_ms(20);//2 segundos fechando
		Controle_Motor_Teto_set_level(false); //Desativa o motor
	}
	//Abrir teto
	if(valores_atuais.radiacao_solar < config_intervalo_aceitavel.radiacao_solar.max && status.Teto == 0){
    125a:	60 91 d9 03 	lds	r22, 0x03D9	; 0x8003d9 <valores_atuais+0x8>
    125e:	70 91 da 03 	lds	r23, 0x03DA	; 0x8003da <valores_atuais+0x9>
    1262:	80 91 db 03 	lds	r24, 0x03DB	; 0x8003db <valores_atuais+0xa>
    1266:	90 91 dc 03 	lds	r25, 0x03DC	; 0x8003dc <valores_atuais+0xb>
    126a:	20 91 32 04 	lds	r18, 0x0432	; 0x800432 <config_intervalo_aceitavel+0x14>
    126e:	30 91 33 04 	lds	r19, 0x0433	; 0x800433 <config_intervalo_aceitavel+0x15>
    1272:	40 91 34 04 	lds	r20, 0x0434	; 0x800434 <config_intervalo_aceitavel+0x16>
    1276:	50 91 35 04 	lds	r21, 0x0435	; 0x800435 <config_intervalo_aceitavel+0x17>
    127a:	0e 94 c7 0c 	call	0x198e	; 0x198e <__cmpsf2>
    127e:	88 23       	and	r24, r24
    1280:	b4 f4       	brge	.+44     	; 0x12ae <controle_motor_teto+0xa6>
    1282:	80 91 5b 04 	lds	r24, 0x045B	; 0x80045b <status+0x3>
    1286:	81 11       	cpse	r24, r1
    1288:	12 c0       	rjmp	.+36     	; 0x12ae <controle_motor_teto+0xa6>
		status.Teto = 1; //Teto aberto
    128a:	81 e0       	ldi	r24, 0x01	; 1
    128c:	80 93 5b 04 	sts	0x045B, r24	; 0x80045b <status+0x3>
 *                  false = Pin level set to "low" state
 */
static inline void PORTC_set_pin_level(const uint8_t pin, const bool level)
{
	if (level) {
		PORTC |= 1 << pin;
    1290:	88 b1       	in	r24, 0x08	; 8
    1292:	80 64       	ori	r24, 0x40	; 64
    1294:	88 b9       	out	0x08, r24	; 8
    1296:	2f ef       	ldi	r18, 0xFF	; 255
    1298:	89 ef       	ldi	r24, 0xF9	; 249
    129a:	90 e0       	ldi	r25, 0x00	; 0
    129c:	21 50       	subi	r18, 0x01	; 1
    129e:	80 40       	sbci	r24, 0x00	; 0
    12a0:	90 40       	sbci	r25, 0x00	; 0
    12a2:	e1 f7       	brne	.-8      	; 0x129c <controle_motor_teto+0x94>
    12a4:	00 c0       	rjmp	.+0      	; 0x12a6 <controle_motor_teto+0x9e>
    12a6:	00 00       	nop
	} else {
		PORTC &= ~(1 << pin);
    12a8:	88 b1       	in	r24, 0x08	; 8
    12aa:	8f 7b       	andi	r24, 0xBF	; 191
    12ac:	88 b9       	out	0x08, r24	; 8
    12ae:	08 95       	ret

000012b0 <controle_motor_bomba_dagua>:
	
}

// controle_motor_bomba_dagua
// Rega as plantas se a umidade do solo estiver muito baixa
void controle_motor_bomba_dagua(){
    12b0:	8f 92       	push	r8
    12b2:	9f 92       	push	r9
    12b4:	af 92       	push	r10
    12b6:	bf 92       	push	r11
    12b8:	cf 92       	push	r12
    12ba:	df 92       	push	r13
    12bc:	ef 92       	push	r14
    12be:	ff 92       	push	r15
	if(valores_atuais.umidade <= config_intervalo_aceitavel.umidade.min && status.bombda_dagua == 0){
    12c0:	c0 90 d5 03 	lds	r12, 0x03D5	; 0x8003d5 <valores_atuais+0x4>
    12c4:	d0 90 d6 03 	lds	r13, 0x03D6	; 0x8003d6 <valores_atuais+0x5>
    12c8:	e0 90 d7 03 	lds	r14, 0x03D7	; 0x8003d7 <valores_atuais+0x6>
    12cc:	f0 90 d8 03 	lds	r15, 0x03D8	; 0x8003d8 <valores_atuais+0x7>
    12d0:	80 90 26 04 	lds	r8, 0x0426	; 0x800426 <config_intervalo_aceitavel+0x8>
    12d4:	90 90 27 04 	lds	r9, 0x0427	; 0x800427 <config_intervalo_aceitavel+0x9>
    12d8:	a0 90 28 04 	lds	r10, 0x0428	; 0x800428 <config_intervalo_aceitavel+0xa>
    12dc:	b0 90 29 04 	lds	r11, 0x0429	; 0x800429 <config_intervalo_aceitavel+0xb>
    12e0:	a5 01       	movw	r20, r10
    12e2:	94 01       	movw	r18, r8
    12e4:	c7 01       	movw	r24, r14
    12e6:	b6 01       	movw	r22, r12
    12e8:	0e 94 c7 0c 	call	0x198e	; 0x198e <__cmpsf2>
    12ec:	18 16       	cp	r1, r24
    12ee:	5c f0       	brlt	.+22     	; 0x1306 <controle_motor_bomba_dagua+0x56>
    12f0:	80 91 58 04 	lds	r24, 0x0458	; 0x800458 <status>
    12f4:	81 11       	cpse	r24, r1
    12f6:	07 c0       	rjmp	.+14     	; 0x1306 <controle_motor_bomba_dagua+0x56>
		status.bombda_dagua = 1;
    12f8:	81 e0       	ldi	r24, 0x01	; 1
    12fa:	80 93 58 04 	sts	0x0458, r24	; 0x800458 <status>
 *                  false = Pin level set to "low" state
 */
static inline void PORTC_set_pin_level(const uint8_t pin, const bool level)
{
	if (level) {
		PORTC |= 1 << pin;
    12fe:	88 b1       	in	r24, 0x08	; 8
    1300:	80 62       	ori	r24, 0x20	; 32
    1302:	88 b9       	out	0x08, r24	; 8
    1304:	11 c0       	rjmp	.+34     	; 0x1328 <controle_motor_bomba_dagua+0x78>
		Controle_Motor_Bomba_Agua_set_level(true);
	}
	else if(valores_atuais.umidade > config_intervalo_aceitavel.umidade.min && status.bombda_dagua == 1){
    1306:	a5 01       	movw	r20, r10
    1308:	94 01       	movw	r18, r8
    130a:	c7 01       	movw	r24, r14
    130c:	b6 01       	movw	r22, r12
    130e:	0e 94 26 0e 	call	0x1c4c	; 0x1c4c <__gesf2>
    1312:	18 16       	cp	r1, r24
    1314:	4c f4       	brge	.+18     	; 0x1328 <controle_motor_bomba_dagua+0x78>
    1316:	80 91 58 04 	lds	r24, 0x0458	; 0x800458 <status>
    131a:	81 30       	cpi	r24, 0x01	; 1
    131c:	29 f4       	brne	.+10     	; 0x1328 <controle_motor_bomba_dagua+0x78>
		status.bombda_dagua = 0;
    131e:	10 92 58 04 	sts	0x0458, r1	; 0x800458 <status>
	} else {
		PORTC &= ~(1 << pin);
    1322:	88 b1       	in	r24, 0x08	; 8
    1324:	8f 7d       	andi	r24, 0xDF	; 223
    1326:	88 b9       	out	0x08, r24	; 8
		Controle_Motor_Bomba_Agua_set_level(false);
	}
}
    1328:	ff 90       	pop	r15
    132a:	ef 90       	pop	r14
    132c:	df 90       	pop	r13
    132e:	cf 90       	pop	r12
    1330:	bf 90       	pop	r11
    1332:	af 90       	pop	r10
    1334:	9f 90       	pop	r9
    1336:	8f 90       	pop	r8
    1338:	08 95       	ret

0000133a <controle_LED>:

void controle_LED(){
    133a:	8f 92       	push	r8
    133c:	9f 92       	push	r9
    133e:	af 92       	push	r10
    1340:	bf 92       	push	r11
    1342:	cf 92       	push	r12
    1344:	df 92       	push	r13
    1346:	ef 92       	push	r14
    1348:	ff 92       	push	r15
	if(valores_atuais.radiacao_solar < config_intervalo_aceitavel.radiacao_solar.min){
    134a:	c0 90 d9 03 	lds	r12, 0x03D9	; 0x8003d9 <valores_atuais+0x8>
    134e:	d0 90 da 03 	lds	r13, 0x03DA	; 0x8003da <valores_atuais+0x9>
    1352:	e0 90 db 03 	lds	r14, 0x03DB	; 0x8003db <valores_atuais+0xa>
    1356:	f0 90 dc 03 	lds	r15, 0x03DC	; 0x8003dc <valores_atuais+0xb>
    135a:	80 90 2e 04 	lds	r8, 0x042E	; 0x80042e <config_intervalo_aceitavel+0x10>
    135e:	90 90 2f 04 	lds	r9, 0x042F	; 0x80042f <config_intervalo_aceitavel+0x11>
    1362:	a0 90 30 04 	lds	r10, 0x0430	; 0x800430 <config_intervalo_aceitavel+0x12>
    1366:	b0 90 31 04 	lds	r11, 0x0431	; 0x800431 <config_intervalo_aceitavel+0x13>
    136a:	a5 01       	movw	r20, r10
    136c:	94 01       	movw	r18, r8
    136e:	c7 01       	movw	r24, r14
    1370:	b6 01       	movw	r22, r12
    1372:	0e 94 c7 0c 	call	0x198e	; 0x198e <__cmpsf2>
    1376:	88 23       	and	r24, r24
    1378:	4c f5       	brge	.+82     	; 0x13cc <controle_LED+0x92>
		status.LED = 1;
    137a:	81 e0       	ldi	r24, 0x01	; 1
    137c:	80 93 5a 04 	sts	0x045A, r24	; 0x80045a <status+0x2>
		if(config_intervalo_aceitavel.radiacao_solar.min - valores_atuais.radiacao_solar < 5){
    1380:	a7 01       	movw	r20, r14
    1382:	96 01       	movw	r18, r12
    1384:	c5 01       	movw	r24, r10
    1386:	b4 01       	movw	r22, r8
    1388:	0e 94 5a 0c 	call	0x18b4	; 0x18b4 <__subsf3>
    138c:	6b 01       	movw	r12, r22
    138e:	7c 01       	movw	r14, r24
    1390:	20 e0       	ldi	r18, 0x00	; 0
    1392:	30 e0       	ldi	r19, 0x00	; 0
    1394:	40 ea       	ldi	r20, 0xA0	; 160
    1396:	50 e4       	ldi	r21, 0x40	; 64
    1398:	0e 94 c7 0c 	call	0x198e	; 0x198e <__cmpsf2>
    139c:	88 23       	and	r24, r24
    139e:	24 f4       	brge	.+8      	; 0x13a8 <controle_LED+0x6e>
			PWM_0_load_duty_cycle_ch1(128);
    13a0:	80 e8       	ldi	r24, 0x80	; 128
    13a2:	0e 94 44 0c 	call	0x1888	; 0x1888 <PWM_0_load_duty_cycle_ch1>
    13a6:	1f c0       	rjmp	.+62     	; 0x13e6 <controle_LED+0xac>
		}else if(config_intervalo_aceitavel.radiacao_solar.min - valores_atuais.radiacao_solar < 15){
    13a8:	20 e0       	ldi	r18, 0x00	; 0
    13aa:	30 e0       	ldi	r19, 0x00	; 0
    13ac:	40 e7       	ldi	r20, 0x70	; 112
    13ae:	51 e4       	ldi	r21, 0x41	; 65
    13b0:	c7 01       	movw	r24, r14
    13b2:	b6 01       	movw	r22, r12
    13b4:	0e 94 c7 0c 	call	0x198e	; 0x198e <__cmpsf2>
    13b8:	88 23       	and	r24, r24
    13ba:	24 f4       	brge	.+8      	; 0x13c4 <controle_LED+0x8a>
			PWM_0_load_duty_cycle_ch1(170);
    13bc:	8a ea       	ldi	r24, 0xAA	; 170
    13be:	0e 94 44 0c 	call	0x1888	; 0x1888 <PWM_0_load_duty_cycle_ch1>
    13c2:	11 c0       	rjmp	.+34     	; 0x13e6 <controle_LED+0xac>
		}else{
			PWM_0_load_duty_cycle_ch1(254);
    13c4:	8e ef       	ldi	r24, 0xFE	; 254
    13c6:	0e 94 44 0c 	call	0x1888	; 0x1888 <PWM_0_load_duty_cycle_ch1>
    13ca:	0d c0       	rjmp	.+26     	; 0x13e6 <controle_LED+0xac>
		}
		
	}
	else if(valores_atuais.radiacao_solar > config_intervalo_aceitavel.radiacao_solar.min){
    13cc:	a5 01       	movw	r20, r10
    13ce:	94 01       	movw	r18, r8
    13d0:	c7 01       	movw	r24, r14
    13d2:	b6 01       	movw	r22, r12
    13d4:	0e 94 26 0e 	call	0x1c4c	; 0x1c4c <__gesf2>
    13d8:	18 16       	cp	r1, r24
    13da:	2c f4       	brge	.+10     	; 0x13e6 <controle_LED+0xac>
		status.LED = 0;
    13dc:	10 92 5a 04 	sts	0x045A, r1	; 0x80045a <status+0x2>
		PWM_0_load_duty_cycle_ch1(0);
    13e0:	80 e0       	ldi	r24, 0x00	; 0
    13e2:	0e 94 44 0c 	call	0x1888	; 0x1888 <PWM_0_load_duty_cycle_ch1>
	}
    13e6:	ff 90       	pop	r15
    13e8:	ef 90       	pop	r14
    13ea:	df 90       	pop	r13
    13ec:	cf 90       	pop	r12
    13ee:	bf 90       	pop	r11
    13f0:	af 90       	pop	r10
    13f2:	9f 90       	pop	r9
    13f4:	8f 90       	pop	r8
    13f6:	08 95       	ret

000013f8 <atualizar_tela>:
	reset_edicao();
}

// atualizar_tela
// Atualiza a tela
void atualizar_tela(){
    13f8:	af 92       	push	r10
    13fa:	bf 92       	push	r11
    13fc:	cf 92       	push	r12
    13fe:	df 92       	push	r13
    1400:	ef 92       	push	r14
    1402:	ff 92       	push	r15
    1404:	0f 93       	push	r16
    1406:	1f 93       	push	r17
    1408:	cf 93       	push	r28
    140a:	df 93       	push	r29
	valores_atuais.temperatura = valor_medido(medicao_ADC.sensor.temperatura,
    140c:	0f 2e       	mov	r0, r31
    140e:	fe e4       	ldi	r31, 0x4E	; 78
    1410:	af 2e       	mov	r10, r31
    1412:	f4 e0       	ldi	r31, 0x04	; 4
    1414:	bf 2e       	mov	r11, r31
    1416:	f0 2d       	mov	r31, r0
    1418:	f5 01       	movw	r30, r10
    141a:	60 81       	ld	r22, Z
    141c:	71 81       	ldd	r23, Z+1	; 0x01
    141e:	80 e0       	ldi	r24, 0x00	; 0
    1420:	90 e0       	ldi	r25, 0x00	; 0
    1422:	0e 94 74 0d 	call	0x1ae8	; 0x1ae8 <__floatunsisf>
    1426:	e0 90 36 04 	lds	r14, 0x0436	; 0x800436 <faixa_de_operacao>
    142a:	f0 90 37 04 	lds	r15, 0x0437	; 0x800437 <faixa_de_operacao+0x1>
    142e:	00 91 38 04 	lds	r16, 0x0438	; 0x800438 <faixa_de_operacao+0x2>
    1432:	10 91 39 04 	lds	r17, 0x0439	; 0x800439 <faixa_de_operacao+0x3>
    1436:	20 91 3a 04 	lds	r18, 0x043A	; 0x80043a <faixa_de_operacao+0x4>
    143a:	30 91 3b 04 	lds	r19, 0x043B	; 0x80043b <faixa_de_operacao+0x5>
    143e:	40 91 3c 04 	lds	r20, 0x043C	; 0x80043c <faixa_de_operacao+0x6>
    1442:	50 91 3d 04 	lds	r21, 0x043D	; 0x80043d <faixa_de_operacao+0x7>
    1446:	0e 94 70 03 	call	0x6e0	; 0x6e0 <valor_medido>
    144a:	0f 2e       	mov	r0, r31
    144c:	f1 ed       	ldi	r31, 0xD1	; 209
    144e:	cf 2e       	mov	r12, r31
    1450:	f3 e0       	ldi	r31, 0x03	; 3
    1452:	df 2e       	mov	r13, r31
    1454:	f0 2d       	mov	r31, r0
    1456:	f6 01       	movw	r30, r12
    1458:	60 83       	st	Z, r22
    145a:	71 83       	std	Z+1, r23	; 0x01
    145c:	82 83       	std	Z+2, r24	; 0x02
    145e:	93 83       	std	Z+3, r25	; 0x03
	                                          faixa_de_operacao.temperatura);
	valores_atuais.umidade = valor_medido(medicao_ADC.sensor.umidade,
    1460:	f5 01       	movw	r30, r10
    1462:	62 81       	ldd	r22, Z+2	; 0x02
    1464:	73 81       	ldd	r23, Z+3	; 0x03
    1466:	ce e3       	ldi	r28, 0x3E	; 62
    1468:	d4 e0       	ldi	r29, 0x04	; 4
    146a:	80 e0       	ldi	r24, 0x00	; 0
    146c:	90 e0       	ldi	r25, 0x00	; 0
    146e:	0e 94 74 0d 	call	0x1ae8	; 0x1ae8 <__floatunsisf>
    1472:	e8 80       	ld	r14, Y
    1474:	f9 80       	ldd	r15, Y+1	; 0x01
    1476:	0a 81       	ldd	r16, Y+2	; 0x02
    1478:	1b 81       	ldd	r17, Y+3	; 0x03
    147a:	2c 81       	ldd	r18, Y+4	; 0x04
    147c:	3d 81       	ldd	r19, Y+5	; 0x05
    147e:	4e 81       	ldd	r20, Y+6	; 0x06
    1480:	5f 81       	ldd	r21, Y+7	; 0x07
    1482:	0e 94 70 03 	call	0x6e0	; 0x6e0 <valor_medido>
    1486:	f6 01       	movw	r30, r12
    1488:	64 83       	std	Z+4, r22	; 0x04
    148a:	75 83       	std	Z+5, r23	; 0x05
    148c:	86 83       	std	Z+6, r24	; 0x06
    148e:	97 83       	std	Z+7, r25	; 0x07
										  faixa_de_operacao.umidade);
	valores_atuais.radiacao_solar = valor_medido(medicao_ADC.sensor.radiacao_solar,
    1490:	f5 01       	movw	r30, r10
    1492:	64 81       	ldd	r22, Z+4	; 0x04
    1494:	75 81       	ldd	r23, Z+5	; 0x05
    1496:	c6 e4       	ldi	r28, 0x46	; 70
    1498:	d4 e0       	ldi	r29, 0x04	; 4
    149a:	80 e0       	ldi	r24, 0x00	; 0
    149c:	90 e0       	ldi	r25, 0x00	; 0
    149e:	0e 94 74 0d 	call	0x1ae8	; 0x1ae8 <__floatunsisf>
    14a2:	e8 80       	ld	r14, Y
    14a4:	f9 80       	ldd	r15, Y+1	; 0x01
    14a6:	0a 81       	ldd	r16, Y+2	; 0x02
    14a8:	1b 81       	ldd	r17, Y+3	; 0x03
    14aa:	2c 81       	ldd	r18, Y+4	; 0x04
    14ac:	3d 81       	ldd	r19, Y+5	; 0x05
    14ae:	4e 81       	ldd	r20, Y+6	; 0x06
    14b0:	5f 81       	ldd	r21, Y+7	; 0x07
    14b2:	0e 94 70 03 	call	0x6e0	; 0x6e0 <valor_medido>
    14b6:	f6 01       	movw	r30, r12
    14b8:	60 87       	std	Z+8, r22	; 0x08
    14ba:	71 87       	std	Z+9, r23	; 0x09
    14bc:	82 87       	std	Z+10, r24	; 0x0a
    14be:	93 87       	std	Z+11, r25	; 0x0b
												 faixa_de_operacao.radiacao_solar);
	
	controle_ar_condicionado();
    14c0:	0e 94 c3 08 	call	0x1186	; 0x1186 <controle_ar_condicionado>
	controle_motor_bomba_dagua();
    14c4:	0e 94 58 09 	call	0x12b0	; 0x12b0 <controle_motor_bomba_dagua>
	controle_motor_teto();
    14c8:	0e 94 04 09 	call	0x1208	; 0x1208 <controle_motor_teto>
	controle_LED();
    14cc:	0e 94 9d 09 	call	0x133a	; 0x133a <controle_LED>
	
	switch(TELA.pagina_atual){
    14d0:	80 91 56 04 	lds	r24, 0x0456	; 0x800456 <TELA>
    14d4:	83 30       	cpi	r24, 0x03	; 3
    14d6:	99 f0       	breq	.+38     	; 0x14fe <atualizar_tela+0x106>
    14d8:	28 f4       	brcc	.+10     	; 0x14e4 <atualizar_tela+0xec>
    14da:	81 30       	cpi	r24, 0x01	; 1
    14dc:	41 f0       	breq	.+16     	; 0x14ee <atualizar_tela+0xf6>
    14de:	82 30       	cpi	r24, 0x02	; 2
    14e0:	51 f0       	breq	.+20     	; 0x14f6 <atualizar_tela+0xfe>
    14e2:	16 c0       	rjmp	.+44     	; 0x1510 <atualizar_tela+0x118>
    14e4:	84 30       	cpi	r24, 0x04	; 4
    14e6:	79 f0       	breq	.+30     	; 0x1506 <atualizar_tela+0x10e>
    14e8:	85 30       	cpi	r24, 0x05	; 5
    14ea:	81 f0       	breq	.+32     	; 0x150c <atualizar_tela+0x114>
    14ec:	11 c0       	rjmp	.+34     	; 0x1510 <atualizar_tela+0x118>
		case 1:
		mostrar_dados_sensores(1); // Valores medidos
    14ee:	81 e0       	ldi	r24, 0x01	; 1
    14f0:	0e 94 bf 03 	call	0x77e	; 0x77e <mostrar_dados_sensores>
		break;
    14f4:	0d c0       	rjmp	.+26     	; 0x1510 <atualizar_tela+0x118>
		
		case 2:
		mostrar_dados_sensores(2); // Valores mínimos aceitáveis
    14f6:	82 e0       	ldi	r24, 0x02	; 2
    14f8:	0e 94 bf 03 	call	0x77e	; 0x77e <mostrar_dados_sensores>
		break;
    14fc:	09 c0       	rjmp	.+18     	; 0x1510 <atualizar_tela+0x118>
		
		case 3:
		mostrar_dados_sensores(3); // Valores máximos aceitáveis
    14fe:	83 e0       	ldi	r24, 0x03	; 3
    1500:	0e 94 bf 03 	call	0x77e	; 0x77e <mostrar_dados_sensores>
		break;
    1504:	05 c0       	rjmp	.+10     	; 0x1510 <atualizar_tela+0x118>
		
		case 4:
		mostrar_status_atuadores(); // Status dos atuadores
    1506:	0e 94 16 05 	call	0xa2c	; 0xa2c <mostrar_status_atuadores>
		break;
    150a:	02 c0       	rjmp	.+4      	; 0x1510 <atualizar_tela+0x118>
		
		case 5:
		editar_valor(); // Editar intervalo aceitável
    150c:	0e 94 b1 05 	call	0xb62	; 0xb62 <editar_valor>
    1510:	ff ef       	ldi	r31, 0xFF	; 255
    1512:	27 ee       	ldi	r18, 0xE7	; 231
    1514:	83 e0       	ldi	r24, 0x03	; 3
    1516:	f1 50       	subi	r31, 0x01	; 1
    1518:	20 40       	sbci	r18, 0x00	; 0
    151a:	80 40       	sbci	r24, 0x00	; 0
    151c:	e1 f7       	brne	.-8      	; 0x1516 <atualizar_tela+0x11e>
    151e:	00 c0       	rjmp	.+0      	; 0x1520 <atualizar_tela+0x128>
    1520:	00 00       	nop
		
		default:
		break;
	}
	_delay_ms(80);
}
    1522:	df 91       	pop	r29
    1524:	cf 91       	pop	r28
    1526:	1f 91       	pop	r17
    1528:	0f 91       	pop	r16
    152a:	ff 90       	pop	r15
    152c:	ef 90       	pop	r14
    152e:	df 90       	pop	r13
    1530:	cf 90       	pop	r12
    1532:	bf 90       	pop	r11
    1534:	af 90       	pop	r10
    1536:	08 95       	ret

00001538 <mudar_tela>:

// mudar_tela
// Troca de página
void mudar_tela(){
	TELA.pagina_atual += 1;
    1538:	e6 e5       	ldi	r30, 0x56	; 86
    153a:	f4 e0       	ldi	r31, 0x04	; 4
    153c:	80 81       	ld	r24, Z
    153e:	8f 5f       	subi	r24, 0xFF	; 255
    1540:	80 83       	st	Z, r24
	if(TELA.pagina_atual > TELA.pagina_total)
    1542:	91 81       	ldd	r25, Z+1	; 0x01
    1544:	98 17       	cp	r25, r24
    1546:	18 f4       	brcc	.+6      	; 0x154e <mudar_tela+0x16>
	TELA.pagina_atual = 1;
    1548:	81 e0       	ldi	r24, 0x01	; 1
    154a:	80 93 56 04 	sts	0x0456, r24	; 0x800456 <TELA>
	atualizar_tela();
    154e:	0e 94 fc 09 	call	0x13f8	; 0x13f8 <atualizar_tela>
    1552:	08 95       	ret

00001554 <write>:
		nokia_lcd.screen[i] = 0x00;
}

void nokia_lcd_power(uint8_t on)
{
	write_cmd(on ? 0x20 : 0x24);
    1554:	95 b1       	in	r25, 0x05	; 5
    1556:	9d 7f       	andi	r25, 0xFD	; 253
    1558:	95 b9       	out	0x05, r25	; 5
    155a:	66 23       	and	r22, r22
    155c:	29 f0       	breq	.+10     	; 0x1568 <write+0x14>
    155e:	95 b1       	in	r25, 0x05	; 5
    1560:	98 60       	ori	r25, 0x08	; 8
    1562:	95 b9       	out	0x05, r25	; 5
    1564:	90 e0       	ldi	r25, 0x00	; 0
    1566:	1f c0       	rjmp	.+62     	; 0x15a6 <write+0x52>
    1568:	95 b1       	in	r25, 0x05	; 5
    156a:	97 7f       	andi	r25, 0xF7	; 247
    156c:	95 b9       	out	0x05, r25	; 5
    156e:	fa cf       	rjmp	.-12     	; 0x1564 <write+0x10>
    1570:	47 e0       	ldi	r20, 0x07	; 7
    1572:	50 e0       	ldi	r21, 0x00	; 0
    1574:	49 1b       	sub	r20, r25
    1576:	51 09       	sbc	r21, r1
    1578:	28 2f       	mov	r18, r24
    157a:	30 e0       	ldi	r19, 0x00	; 0
    157c:	02 c0       	rjmp	.+4      	; 0x1582 <write+0x2e>
    157e:	35 95       	asr	r19
    1580:	27 95       	ror	r18
    1582:	4a 95       	dec	r20
    1584:	e2 f7       	brpl	.-8      	; 0x157e <write+0x2a>
    1586:	20 ff       	sbrs	r18, 0
    1588:	04 c0       	rjmp	.+8      	; 0x1592 <write+0x3e>
    158a:	25 b1       	in	r18, 0x05	; 5
    158c:	20 61       	ori	r18, 0x10	; 16
    158e:	25 b9       	out	0x05, r18	; 5
    1590:	03 c0       	rjmp	.+6      	; 0x1598 <write+0x44>
    1592:	25 b1       	in	r18, 0x05	; 5
    1594:	2f 7e       	andi	r18, 0xEF	; 239
    1596:	25 b9       	out	0x05, r18	; 5
    1598:	25 b1       	in	r18, 0x05	; 5
    159a:	20 62       	ori	r18, 0x20	; 32
    159c:	25 b9       	out	0x05, r18	; 5
    159e:	25 b1       	in	r18, 0x05	; 5
    15a0:	2f 7d       	andi	r18, 0xDF	; 223
    15a2:	25 b9       	out	0x05, r18	; 5
    15a4:	9f 5f       	subi	r25, 0xFF	; 255
    15a6:	98 30       	cpi	r25, 0x08	; 8
    15a8:	18 f3       	brcs	.-58     	; 0x1570 <write+0x1c>
    15aa:	85 b1       	in	r24, 0x05	; 5
    15ac:	82 60       	ori	r24, 0x02	; 2
    15ae:	85 b9       	out	0x05, r24	; 5
    15b0:	08 95       	ret

000015b2 <write_cmd>:
    15b2:	60 e0       	ldi	r22, 0x00	; 0
    15b4:	0e 94 aa 0a 	call	0x1554	; 0x1554 <write>
    15b8:	08 95       	ret

000015ba <write_data>:
    15ba:	61 e0       	ldi	r22, 0x01	; 1
    15bc:	0e 94 aa 0a 	call	0x1554	; 0x1554 <write>
    15c0:	08 95       	ret

000015c2 <nokia_lcd_init>:
    15c2:	cf 93       	push	r28
    15c4:	df 93       	push	r29
    15c6:	84 b1       	in	r24, 0x04	; 4
    15c8:	82 60       	ori	r24, 0x02	; 2
    15ca:	84 b9       	out	0x04, r24	; 4
    15cc:	84 b1       	in	r24, 0x04	; 4
    15ce:	84 60       	ori	r24, 0x04	; 4
    15d0:	84 b9       	out	0x04, r24	; 4
    15d2:	84 b1       	in	r24, 0x04	; 4
    15d4:	88 60       	ori	r24, 0x08	; 8
    15d6:	84 b9       	out	0x04, r24	; 4
    15d8:	84 b1       	in	r24, 0x04	; 4
    15da:	80 61       	ori	r24, 0x10	; 16
    15dc:	84 b9       	out	0x04, r24	; 4
    15de:	84 b1       	in	r24, 0x04	; 4
    15e0:	80 62       	ori	r24, 0x20	; 32
    15e2:	84 b9       	out	0x04, r24	; 4
    15e4:	85 b1       	in	r24, 0x05	; 5
    15e6:	84 60       	ori	r24, 0x04	; 4
    15e8:	85 b9       	out	0x05, r24	; 5
    15ea:	85 b1       	in	r24, 0x05	; 5
    15ec:	82 60       	ori	r24, 0x02	; 2
    15ee:	85 b9       	out	0x05, r24	; 5
    15f0:	83 ec       	ldi	r24, 0xC3	; 195
    15f2:	99 e0       	ldi	r25, 0x09	; 9
    15f4:	01 97       	sbiw	r24, 0x01	; 1
    15f6:	f1 f7       	brne	.-4      	; 0x15f4 <nokia_lcd_init+0x32>
    15f8:	00 c0       	rjmp	.+0      	; 0x15fa <nokia_lcd_init+0x38>
    15fa:	00 00       	nop
    15fc:	85 b1       	in	r24, 0x05	; 5
    15fe:	8b 7f       	andi	r24, 0xFB	; 251
    1600:	85 b9       	out	0x05, r24	; 5
    1602:	8b e5       	ldi	r24, 0x5B	; 91
    1604:	94 e4       	ldi	r25, 0x44	; 68
    1606:	01 97       	sbiw	r24, 0x01	; 1
    1608:	f1 f7       	brne	.-4      	; 0x1606 <nokia_lcd_init+0x44>
    160a:	00 c0       	rjmp	.+0      	; 0x160c <nokia_lcd_init+0x4a>
    160c:	00 00       	nop
    160e:	85 b1       	in	r24, 0x05	; 5
    1610:	84 60       	ori	r24, 0x04	; 4
    1612:	85 b9       	out	0x05, r24	; 5
    1614:	85 b1       	in	r24, 0x05	; 5
    1616:	8d 7f       	andi	r24, 0xFD	; 253
    1618:	85 b9       	out	0x05, r24	; 5
    161a:	81 e2       	ldi	r24, 0x21	; 33
    161c:	0e 94 d9 0a 	call	0x15b2	; 0x15b2 <write_cmd>
    1620:	83 e1       	ldi	r24, 0x13	; 19
    1622:	0e 94 d9 0a 	call	0x15b2	; 0x15b2 <write_cmd>
    1626:	86 e0       	ldi	r24, 0x06	; 6
    1628:	0e 94 d9 0a 	call	0x15b2	; 0x15b2 <write_cmd>
    162c:	82 ec       	ldi	r24, 0xC2	; 194
    162e:	0e 94 d9 0a 	call	0x15b2	; 0x15b2 <write_cmd>
    1632:	80 e2       	ldi	r24, 0x20	; 32
    1634:	0e 94 d9 0a 	call	0x15b2	; 0x15b2 <write_cmd>
    1638:	89 e0       	ldi	r24, 0x09	; 9
    163a:	0e 94 d9 0a 	call	0x15b2	; 0x15b2 <write_cmd>
    163e:	80 e8       	ldi	r24, 0x80	; 128
    1640:	0e 94 d9 0a 	call	0x15b2	; 0x15b2 <write_cmd>
    1644:	80 e4       	ldi	r24, 0x40	; 64
    1646:	0e 94 d9 0a 	call	0x15b2	; 0x15b2 <write_cmd>
    164a:	c0 e0       	ldi	r28, 0x00	; 0
    164c:	d0 e0       	ldi	r29, 0x00	; 0
    164e:	04 c0       	rjmp	.+8      	; 0x1658 <nokia_lcd_init+0x96>
    1650:	80 e0       	ldi	r24, 0x00	; 0
    1652:	0e 94 dd 0a 	call	0x15ba	; 0x15ba <write_data>
    1656:	21 96       	adiw	r28, 0x01	; 1
    1658:	c8 3f       	cpi	r28, 0xF8	; 248
    165a:	91 e0       	ldi	r25, 0x01	; 1
    165c:	d9 07       	cpc	r29, r25
    165e:	c0 f3       	brcs	.-16     	; 0x1650 <nokia_lcd_init+0x8e>
    1660:	88 e0       	ldi	r24, 0x08	; 8
    1662:	0e 94 d9 0a 	call	0x15b2	; 0x15b2 <write_cmd>
    1666:	8c e0       	ldi	r24, 0x0C	; 12
    1668:	0e 94 d9 0a 	call	0x15b2	; 0x15b2 <write_cmd>
    166c:	df 91       	pop	r29
    166e:	cf 91       	pop	r28
    1670:	08 95       	ret

00001672 <nokia_lcd_clear>:
    1672:	80 e8       	ldi	r24, 0x80	; 128
    1674:	0e 94 d9 0a 	call	0x15b2	; 0x15b2 <write_cmd>
    1678:	80 e4       	ldi	r24, 0x40	; 64
    167a:	0e 94 d9 0a 	call	0x15b2	; 0x15b2 <write_cmd>
    167e:	10 92 ce 03 	sts	0x03CE, r1	; 0x8003ce <__data_end+0x1f8>
    1682:	10 92 cf 03 	sts	0x03CF, r1	; 0x8003cf <__data_end+0x1f9>
    1686:	80 e0       	ldi	r24, 0x00	; 0
    1688:	90 e0       	ldi	r25, 0x00	; 0
    168a:	05 c0       	rjmp	.+10     	; 0x1696 <nokia_lcd_clear+0x24>
    168c:	fc 01       	movw	r30, r24
    168e:	ea 52       	subi	r30, 0x2A	; 42
    1690:	fe 4f       	sbci	r31, 0xFE	; 254
    1692:	10 82       	st	Z, r1
    1694:	01 96       	adiw	r24, 0x01	; 1
    1696:	88 3f       	cpi	r24, 0xF8	; 248
    1698:	21 e0       	ldi	r18, 0x01	; 1
    169a:	92 07       	cpc	r25, r18
    169c:	b8 f3       	brcs	.-18     	; 0x168c <nokia_lcd_clear+0x1a>
    169e:	08 95       	ret

000016a0 <nokia_lcd_set_pixel>:
}

void nokia_lcd_set_pixel(uint8_t x, uint8_t y, uint8_t value)
{
	uint8_t *byte = &nokia_lcd.screen[y/8*84+x];
    16a0:	26 2f       	mov	r18, r22
    16a2:	26 95       	lsr	r18
    16a4:	26 95       	lsr	r18
    16a6:	26 95       	lsr	r18
    16a8:	90 e0       	ldi	r25, 0x00	; 0
    16aa:	34 e5       	ldi	r19, 0x54	; 84
    16ac:	23 9f       	mul	r18, r19
    16ae:	80 0d       	add	r24, r0
    16b0:	91 1d       	adc	r25, r1
    16b2:	11 24       	eor	r1, r1
	if (value)
    16b4:	44 23       	and	r20, r20
    16b6:	79 f0       	breq	.+30     	; 0x16d6 <nokia_lcd_set_pixel+0x36>
		*byte |= (1 << (y % 8));
    16b8:	67 70       	andi	r22, 0x07	; 7
    16ba:	21 e0       	ldi	r18, 0x01	; 1
    16bc:	30 e0       	ldi	r19, 0x00	; 0
    16be:	02 c0       	rjmp	.+4      	; 0x16c4 <nokia_lcd_set_pixel+0x24>
    16c0:	22 0f       	add	r18, r18
    16c2:	33 1f       	adc	r19, r19
    16c4:	6a 95       	dec	r22
    16c6:	e2 f7       	brpl	.-8      	; 0x16c0 <nokia_lcd_set_pixel+0x20>
    16c8:	fc 01       	movw	r30, r24
    16ca:	ea 52       	subi	r30, 0x2A	; 42
    16cc:	fe 4f       	sbci	r31, 0xFE	; 254
    16ce:	80 81       	ld	r24, Z
    16d0:	28 2b       	or	r18, r24
    16d2:	20 83       	st	Z, r18
    16d4:	08 95       	ret
	else
		*byte &= ~(1 << (y %8 ));
    16d6:	67 70       	andi	r22, 0x07	; 7
    16d8:	21 e0       	ldi	r18, 0x01	; 1
    16da:	30 e0       	ldi	r19, 0x00	; 0
    16dc:	02 c0       	rjmp	.+4      	; 0x16e2 <nokia_lcd_set_pixel+0x42>
    16de:	22 0f       	add	r18, r18
    16e0:	33 1f       	adc	r19, r19
    16e2:	6a 95       	dec	r22
    16e4:	e2 f7       	brpl	.-8      	; 0x16de <nokia_lcd_set_pixel+0x3e>
    16e6:	fc 01       	movw	r30, r24
    16e8:	ea 52       	subi	r30, 0x2A	; 42
    16ea:	fe 4f       	sbci	r31, 0xFE	; 254
    16ec:	20 95       	com	r18
    16ee:	80 81       	ld	r24, Z
    16f0:	28 23       	and	r18, r24
    16f2:	20 83       	st	Z, r18
    16f4:	08 95       	ret

000016f6 <nokia_lcd_write_char>:
}

void nokia_lcd_write_char(char code, uint8_t scale)
{
    16f6:	ef 92       	push	r14
    16f8:	ff 92       	push	r15
    16fa:	0f 93       	push	r16
    16fc:	1f 93       	push	r17
    16fe:	cf 93       	push	r28
    1700:	df 93       	push	r29
    1702:	e8 2e       	mov	r14, r24
    1704:	f6 2e       	mov	r15, r22
	register uint8_t x, y;

	for (x = 0; x < 5*scale; x++)
    1706:	00 e0       	ldi	r16, 0x00	; 0
    1708:	45 c0       	rjmp	.+138    	; 0x1794 <nokia_lcd_write_char+0x9e>
		for (y = 0; y < 7*scale; y++)
			if (pgm_read_byte(&CHARSET[code-32][x/scale]) & (1 << y/scale))
    170a:	2e 2d       	mov	r18, r14
    170c:	30 e0       	ldi	r19, 0x00	; 0
    170e:	20 52       	subi	r18, 0x20	; 32
    1710:	31 09       	sbc	r19, r1
    1712:	80 2f       	mov	r24, r16
    1714:	6f 2d       	mov	r22, r15
    1716:	0e 94 98 0e 	call	0x1d30	; 0x1d30 <__udivmodqi4>
    171a:	f9 01       	movw	r30, r18
    171c:	ee 0f       	add	r30, r30
    171e:	ff 1f       	adc	r31, r31
    1720:	ee 0f       	add	r30, r30
    1722:	ff 1f       	adc	r31, r31
    1724:	e2 0f       	add	r30, r18
    1726:	f3 1f       	adc	r31, r19
    1728:	e8 0f       	add	r30, r24
    172a:	f1 1d       	adc	r31, r1
    172c:	e8 59       	subi	r30, 0x98	; 152
    172e:	ff 4f       	sbci	r31, 0xFF	; 255
    1730:	e4 91       	lpm	r30, Z
    1732:	81 2f       	mov	r24, r17
    1734:	0e 94 98 0e 	call	0x1d30	; 0x1d30 <__udivmodqi4>
    1738:	f0 e0       	ldi	r31, 0x00	; 0
    173a:	02 c0       	rjmp	.+4      	; 0x1740 <nokia_lcd_write_char+0x4a>
    173c:	f5 95       	asr	r31
    173e:	e7 95       	ror	r30
    1740:	8a 95       	dec	r24
    1742:	e2 f7       	brpl	.-8      	; 0x173c <nokia_lcd_write_char+0x46>
    1744:	e0 ff       	sbrs	r30, 0
    1746:	0a c0       	rjmp	.+20     	; 0x175c <nokia_lcd_write_char+0x66>
				nokia_lcd_set_pixel(nokia_lcd.cursor_x + x, nokia_lcd.cursor_y + y, 1);
    1748:	60 91 cf 03 	lds	r22, 0x03CF	; 0x8003cf <__data_end+0x1f9>
    174c:	80 91 ce 03 	lds	r24, 0x03CE	; 0x8003ce <__data_end+0x1f8>
    1750:	61 0f       	add	r22, r17
    1752:	41 e0       	ldi	r20, 0x01	; 1
    1754:	80 0f       	add	r24, r16
    1756:	0e 94 50 0b 	call	0x16a0	; 0x16a0 <nokia_lcd_set_pixel>
    175a:	09 c0       	rjmp	.+18     	; 0x176e <nokia_lcd_write_char+0x78>
			else
				nokia_lcd_set_pixel(nokia_lcd.cursor_x + x, nokia_lcd.cursor_y + y, 0);
    175c:	60 91 cf 03 	lds	r22, 0x03CF	; 0x8003cf <__data_end+0x1f9>
    1760:	80 91 ce 03 	lds	r24, 0x03CE	; 0x8003ce <__data_end+0x1f8>
    1764:	61 0f       	add	r22, r17
    1766:	40 e0       	ldi	r20, 0x00	; 0
    1768:	80 0f       	add	r24, r16
    176a:	0e 94 50 0b 	call	0x16a0	; 0x16a0 <nokia_lcd_set_pixel>
void nokia_lcd_write_char(char code, uint8_t scale)
{
	register uint8_t x, y;

	for (x = 0; x < 5*scale; x++)
		for (y = 0; y < 7*scale; y++)
    176e:	1f 5f       	subi	r17, 0xFF	; 255
    1770:	01 c0       	rjmp	.+2      	; 0x1774 <nokia_lcd_write_char+0x7e>
    1772:	10 e0       	ldi	r17, 0x00	; 0
    1774:	21 2f       	mov	r18, r17
    1776:	30 e0       	ldi	r19, 0x00	; 0
    1778:	ce 01       	movw	r24, r28
    177a:	88 0f       	add	r24, r24
    177c:	99 1f       	adc	r25, r25
    177e:	88 0f       	add	r24, r24
    1780:	99 1f       	adc	r25, r25
    1782:	88 0f       	add	r24, r24
    1784:	99 1f       	adc	r25, r25
    1786:	8c 1b       	sub	r24, r28
    1788:	9d 0b       	sbc	r25, r29
    178a:	28 17       	cp	r18, r24
    178c:	39 07       	cpc	r19, r25
    178e:	0c f4       	brge	.+2      	; 0x1792 <nokia_lcd_write_char+0x9c>
    1790:	bc cf       	rjmp	.-136    	; 0x170a <nokia_lcd_write_char+0x14>

void nokia_lcd_write_char(char code, uint8_t scale)
{
	register uint8_t x, y;

	for (x = 0; x < 5*scale; x++)
    1792:	0f 5f       	subi	r16, 0xFF	; 255
    1794:	20 2f       	mov	r18, r16
    1796:	30 e0       	ldi	r19, 0x00	; 0
    1798:	cf 2d       	mov	r28, r15
    179a:	d0 e0       	ldi	r29, 0x00	; 0
    179c:	ce 01       	movw	r24, r28
    179e:	88 0f       	add	r24, r24
    17a0:	99 1f       	adc	r25, r25
    17a2:	88 0f       	add	r24, r24
    17a4:	99 1f       	adc	r25, r25
    17a6:	8c 0f       	add	r24, r28
    17a8:	9d 1f       	adc	r25, r29
    17aa:	28 17       	cp	r18, r24
    17ac:	39 07       	cpc	r19, r25
    17ae:	0c f3       	brlt	.-62     	; 0x1772 <nokia_lcd_write_char+0x7c>
			if (pgm_read_byte(&CHARSET[code-32][x/scale]) & (1 << y/scale))
				nokia_lcd_set_pixel(nokia_lcd.cursor_x + x, nokia_lcd.cursor_y + y, 1);
			else
				nokia_lcd_set_pixel(nokia_lcd.cursor_x + x, nokia_lcd.cursor_y + y, 0);

	nokia_lcd.cursor_x += 5*scale + 1;
    17b0:	ee ec       	ldi	r30, 0xCE	; 206
    17b2:	f3 e0       	ldi	r31, 0x03	; 3
    17b4:	8f 2d       	mov	r24, r15
    17b6:	88 0f       	add	r24, r24
    17b8:	88 0f       	add	r24, r24
    17ba:	8f 0d       	add	r24, r15
    17bc:	90 81       	ld	r25, Z
    17be:	89 0f       	add	r24, r25
    17c0:	8f 5f       	subi	r24, 0xFF	; 255
    17c2:	80 83       	st	Z, r24
	if (nokia_lcd.cursor_x >= 84) {
    17c4:	84 35       	cpi	r24, 0x54	; 84
    17c6:	70 f0       	brcs	.+28     	; 0x17e4 <nokia_lcd_write_char+0xee>
		nokia_lcd.cursor_x = 0;
    17c8:	10 92 ce 03 	sts	0x03CE, r1	; 0x8003ce <__data_end+0x1f8>
		nokia_lcd.cursor_y += 7*scale + 1;
    17cc:	ef ec       	ldi	r30, 0xCF	; 207
    17ce:	f3 e0       	ldi	r31, 0x03	; 3
    17d0:	8f 2d       	mov	r24, r15
    17d2:	88 0f       	add	r24, r24
    17d4:	88 0f       	add	r24, r24
    17d6:	88 0f       	add	r24, r24
    17d8:	98 2f       	mov	r25, r24
    17da:	9f 19       	sub	r25, r15
    17dc:	80 81       	ld	r24, Z
    17de:	89 0f       	add	r24, r25
    17e0:	8f 5f       	subi	r24, 0xFF	; 255
    17e2:	80 83       	st	Z, r24
	}
	if (nokia_lcd.cursor_y >= 48) {
    17e4:	80 91 cf 03 	lds	r24, 0x03CF	; 0x8003cf <__data_end+0x1f9>
    17e8:	80 33       	cpi	r24, 0x30	; 48
    17ea:	20 f0       	brcs	.+8      	; 0x17f4 <nokia_lcd_write_char+0xfe>
		nokia_lcd.cursor_x = 0;
    17ec:	10 92 ce 03 	sts	0x03CE, r1	; 0x8003ce <__data_end+0x1f8>
		nokia_lcd.cursor_y = 0;
    17f0:	10 92 cf 03 	sts	0x03CF, r1	; 0x8003cf <__data_end+0x1f9>
	}
}
    17f4:	df 91       	pop	r29
    17f6:	cf 91       	pop	r28
    17f8:	1f 91       	pop	r17
    17fa:	0f 91       	pop	r16
    17fc:	ff 90       	pop	r15
    17fe:	ef 90       	pop	r14
    1800:	08 95       	ret

00001802 <nokia_lcd_write_string>:

void nokia_lcd_write_string(const char *str, uint8_t scale)
{
    1802:	1f 93       	push	r17
    1804:	cf 93       	push	r28
    1806:	df 93       	push	r29
    1808:	ec 01       	movw	r28, r24
    180a:	16 2f       	mov	r17, r22
	while(*str)
    180c:	04 c0       	rjmp	.+8      	; 0x1816 <nokia_lcd_write_string+0x14>
		nokia_lcd_write_char(*str++, scale);
    180e:	21 96       	adiw	r28, 0x01	; 1
    1810:	61 2f       	mov	r22, r17
    1812:	0e 94 7b 0b 	call	0x16f6	; 0x16f6 <nokia_lcd_write_char>
	}
}

void nokia_lcd_write_string(const char *str, uint8_t scale)
{
	while(*str)
    1816:	88 81       	ld	r24, Y
    1818:	81 11       	cpse	r24, r1
    181a:	f9 cf       	rjmp	.-14     	; 0x180e <nokia_lcd_write_string+0xc>
		nokia_lcd_write_char(*str++, scale);
}
    181c:	df 91       	pop	r29
    181e:	cf 91       	pop	r28
    1820:	1f 91       	pop	r17
    1822:	08 95       	ret

00001824 <nokia_lcd_set_cursor>:

void nokia_lcd_set_cursor(uint8_t x, uint8_t y)
{
	nokia_lcd.cursor_x = x;
    1824:	80 93 ce 03 	sts	0x03CE, r24	; 0x8003ce <__data_end+0x1f8>
	nokia_lcd.cursor_y = y;
    1828:	60 93 cf 03 	sts	0x03CF, r22	; 0x8003cf <__data_end+0x1f9>
    182c:	08 95       	ret

0000182e <nokia_lcd_render>:
}

void nokia_lcd_render(void)
{
    182e:	cf 93       	push	r28
    1830:	df 93       	push	r29
	register unsigned i;
	/* Set column and row to 0 */
	write_cmd(0x80);
    1832:	80 e8       	ldi	r24, 0x80	; 128
    1834:	0e 94 d9 0a 	call	0x15b2	; 0x15b2 <write_cmd>
	write_cmd(0x40);
    1838:	80 e4       	ldi	r24, 0x40	; 64
    183a:	0e 94 d9 0a 	call	0x15b2	; 0x15b2 <write_cmd>

	/* Write screen to display */
	for (i = 0; i < 504; i++)
    183e:	c0 e0       	ldi	r28, 0x00	; 0
    1840:	d0 e0       	ldi	r29, 0x00	; 0
    1842:	07 c0       	rjmp	.+14     	; 0x1852 <nokia_lcd_render+0x24>
		write_data(nokia_lcd.screen[i]);
    1844:	fe 01       	movw	r30, r28
    1846:	ea 52       	subi	r30, 0x2A	; 42
    1848:	fe 4f       	sbci	r31, 0xFE	; 254
    184a:	80 81       	ld	r24, Z
    184c:	0e 94 dd 0a 	call	0x15ba	; 0x15ba <write_data>
	/* Set column and row to 0 */
	write_cmd(0x80);
	write_cmd(0x40);

	/* Write screen to display */
	for (i = 0; i < 504; i++)
    1850:	21 96       	adiw	r28, 0x01	; 1
    1852:	c8 3f       	cpi	r28, 0xF8	; 248
    1854:	81 e0       	ldi	r24, 0x01	; 1
    1856:	d8 07       	cpc	r29, r24
    1858:	a8 f3       	brcs	.-22     	; 0x1844 <nokia_lcd_render+0x16>
		write_data(nokia_lcd.screen[i]);
}
    185a:	df 91       	pop	r29
    185c:	cf 91       	pop	r28
    185e:	08 95       	ret

00001860 <protected_write_io>:
#if defined(__GNUC__)
	/*
	 * We need to disable interrupts globally before the protected
	 * sequence. In order to do that we must save SREG first.
	 */
	in      r18,    _SFR_IO_ADDR(SREG)
    1860:	2f b7       	in	r18, 0x3f	; 63
	cli
    1862:	f8 94       	cli
  
#ifdef RAMPZ
	out     _SFR_IO_ADDR(RAMPZ), r1         // Clear bits 23:16 of Z
#endif
	movw    r30, r24                // Load addr into Z
    1864:	fc 01       	movw	r30, r24
	st      Z, r22                  // Write protection bit to I/O register
    1866:	60 83       	st	Z, r22
	st      Z, r20                  // Write value to I/O register
    1868:	40 83       	st	Z, r20
	out     _SFR_IO_ADDR(SREG), r18
    186a:	2f bf       	out	0x3f, r18	; 63

	ret                             // Return to caller
    186c:	08 95       	ret

0000186e <PWM_0_init>:
 *
 * \return Nothing.
 */
void PWM_0_register_callback(pwm_irq_cb_t f)
{
	PWM_0_cb = f;
    186e:	e4 e6       	ldi	r30, 0x64	; 100
    1870:	f0 e0       	ldi	r31, 0x00	; 0
    1872:	80 81       	ld	r24, Z
    1874:	8f 7d       	andi	r24, 0xDF	; 223
    1876:	80 83       	st	Z, r24
    1878:	83 ea       	ldi	r24, 0xA3	; 163
    187a:	84 bd       	out	0x24, r24	; 36
    187c:	81 e0       	ldi	r24, 0x01	; 1
    187e:	85 bd       	out	0x25, r24	; 37
    1880:	80 e0       	ldi	r24, 0x00	; 0
    1882:	08 95       	ret

00001884 <PWM_0_load_top>:
    1884:	87 bd       	out	0x27, r24	; 39
    1886:	08 95       	ret

00001888 <PWM_0_load_duty_cycle_ch1>:
    1888:	88 bd       	out	0x28, r24	; 40
    188a:	08 95       	ret

0000188c <__vector_16>:
}

ISR(TIMER0_OVF_vect)
{
    188c:	1f 92       	push	r1
    188e:	0f 92       	push	r0
    1890:	0f b6       	in	r0, 0x3f	; 63
    1892:	0f 92       	push	r0
    1894:	11 24       	eor	r1, r1
    1896:	8f 93       	push	r24
	static volatile uint8_t callback_count = 0;

	// Clear the interrupt flag
	TIFR0 |= (1 << TOV0);
    1898:	85 b3       	in	r24, 0x15	; 21
    189a:	81 60       	ori	r24, 0x01	; 1
    189c:	85 bb       	out	0x15, r24	; 21

	// callback function - called every 0 passes
	if ((++callback_count >= PWM_0_INTERRUPT_CB_RATE) && (PWM_0_INTERRUPT_CB_RATE != 0)) {
    189e:	80 91 d0 03 	lds	r24, 0x03D0	; 0x8003d0 <callback_count.1827>
    18a2:	8f 5f       	subi	r24, 0xFF	; 255
    18a4:	80 93 d0 03 	sts	0x03D0, r24	; 0x8003d0 <callback_count.1827>
		if (PWM_0_cb != NULL) {
			PWM_0_cb();
		}
	}
}
    18a8:	8f 91       	pop	r24
    18aa:	0f 90       	pop	r0
    18ac:	0f be       	out	0x3f, r0	; 63
    18ae:	0f 90       	pop	r0
    18b0:	1f 90       	pop	r1
    18b2:	18 95       	reti

000018b4 <__subsf3>:
    18b4:	50 58       	subi	r21, 0x80	; 128

000018b6 <__addsf3>:
    18b6:	bb 27       	eor	r27, r27
    18b8:	aa 27       	eor	r26, r26
    18ba:	0e 94 72 0c 	call	0x18e4	; 0x18e4 <__addsf3x>
    18be:	0c 94 ec 0d 	jmp	0x1bd8	; 0x1bd8 <__fp_round>
    18c2:	0e 94 de 0d 	call	0x1bbc	; 0x1bbc <__fp_pscA>
    18c6:	38 f0       	brcs	.+14     	; 0x18d6 <__addsf3+0x20>
    18c8:	0e 94 e5 0d 	call	0x1bca	; 0x1bca <__fp_pscB>
    18cc:	20 f0       	brcs	.+8      	; 0x18d6 <__addsf3+0x20>
    18ce:	39 f4       	brne	.+14     	; 0x18de <__addsf3+0x28>
    18d0:	9f 3f       	cpi	r25, 0xFF	; 255
    18d2:	19 f4       	brne	.+6      	; 0x18da <__addsf3+0x24>
    18d4:	26 f4       	brtc	.+8      	; 0x18de <__addsf3+0x28>
    18d6:	0c 94 db 0d 	jmp	0x1bb6	; 0x1bb6 <__fp_nan>
    18da:	0e f4       	brtc	.+2      	; 0x18de <__addsf3+0x28>
    18dc:	e0 95       	com	r30
    18de:	e7 fb       	bst	r30, 7
    18e0:	0c 94 d5 0d 	jmp	0x1baa	; 0x1baa <__fp_inf>

000018e4 <__addsf3x>:
    18e4:	e9 2f       	mov	r30, r25
    18e6:	0e 94 fd 0d 	call	0x1bfa	; 0x1bfa <__fp_split3>
    18ea:	58 f3       	brcs	.-42     	; 0x18c2 <__addsf3+0xc>
    18ec:	ba 17       	cp	r27, r26
    18ee:	62 07       	cpc	r22, r18
    18f0:	73 07       	cpc	r23, r19
    18f2:	84 07       	cpc	r24, r20
    18f4:	95 07       	cpc	r25, r21
    18f6:	20 f0       	brcs	.+8      	; 0x1900 <__addsf3x+0x1c>
    18f8:	79 f4       	brne	.+30     	; 0x1918 <__addsf3x+0x34>
    18fa:	a6 f5       	brtc	.+104    	; 0x1964 <__addsf3x+0x80>
    18fc:	0c 94 1f 0e 	jmp	0x1c3e	; 0x1c3e <__fp_zero>
    1900:	0e f4       	brtc	.+2      	; 0x1904 <__addsf3x+0x20>
    1902:	e0 95       	com	r30
    1904:	0b 2e       	mov	r0, r27
    1906:	ba 2f       	mov	r27, r26
    1908:	a0 2d       	mov	r26, r0
    190a:	0b 01       	movw	r0, r22
    190c:	b9 01       	movw	r22, r18
    190e:	90 01       	movw	r18, r0
    1910:	0c 01       	movw	r0, r24
    1912:	ca 01       	movw	r24, r20
    1914:	a0 01       	movw	r20, r0
    1916:	11 24       	eor	r1, r1
    1918:	ff 27       	eor	r31, r31
    191a:	59 1b       	sub	r21, r25
    191c:	99 f0       	breq	.+38     	; 0x1944 <__addsf3x+0x60>
    191e:	59 3f       	cpi	r21, 0xF9	; 249
    1920:	50 f4       	brcc	.+20     	; 0x1936 <__addsf3x+0x52>
    1922:	50 3e       	cpi	r21, 0xE0	; 224
    1924:	68 f1       	brcs	.+90     	; 0x1980 <__addsf3x+0x9c>
    1926:	1a 16       	cp	r1, r26
    1928:	f0 40       	sbci	r31, 0x00	; 0
    192a:	a2 2f       	mov	r26, r18
    192c:	23 2f       	mov	r18, r19
    192e:	34 2f       	mov	r19, r20
    1930:	44 27       	eor	r20, r20
    1932:	58 5f       	subi	r21, 0xF8	; 248
    1934:	f3 cf       	rjmp	.-26     	; 0x191c <__addsf3x+0x38>
    1936:	46 95       	lsr	r20
    1938:	37 95       	ror	r19
    193a:	27 95       	ror	r18
    193c:	a7 95       	ror	r26
    193e:	f0 40       	sbci	r31, 0x00	; 0
    1940:	53 95       	inc	r21
    1942:	c9 f7       	brne	.-14     	; 0x1936 <__addsf3x+0x52>
    1944:	7e f4       	brtc	.+30     	; 0x1964 <__addsf3x+0x80>
    1946:	1f 16       	cp	r1, r31
    1948:	ba 0b       	sbc	r27, r26
    194a:	62 0b       	sbc	r22, r18
    194c:	73 0b       	sbc	r23, r19
    194e:	84 0b       	sbc	r24, r20
    1950:	ba f0       	brmi	.+46     	; 0x1980 <__addsf3x+0x9c>
    1952:	91 50       	subi	r25, 0x01	; 1
    1954:	a1 f0       	breq	.+40     	; 0x197e <__addsf3x+0x9a>
    1956:	ff 0f       	add	r31, r31
    1958:	bb 1f       	adc	r27, r27
    195a:	66 1f       	adc	r22, r22
    195c:	77 1f       	adc	r23, r23
    195e:	88 1f       	adc	r24, r24
    1960:	c2 f7       	brpl	.-16     	; 0x1952 <__addsf3x+0x6e>
    1962:	0e c0       	rjmp	.+28     	; 0x1980 <__addsf3x+0x9c>
    1964:	ba 0f       	add	r27, r26
    1966:	62 1f       	adc	r22, r18
    1968:	73 1f       	adc	r23, r19
    196a:	84 1f       	adc	r24, r20
    196c:	48 f4       	brcc	.+18     	; 0x1980 <__addsf3x+0x9c>
    196e:	87 95       	ror	r24
    1970:	77 95       	ror	r23
    1972:	67 95       	ror	r22
    1974:	b7 95       	ror	r27
    1976:	f7 95       	ror	r31
    1978:	9e 3f       	cpi	r25, 0xFE	; 254
    197a:	08 f0       	brcs	.+2      	; 0x197e <__addsf3x+0x9a>
    197c:	b0 cf       	rjmp	.-160    	; 0x18de <__addsf3+0x28>
    197e:	93 95       	inc	r25
    1980:	88 0f       	add	r24, r24
    1982:	08 f0       	brcs	.+2      	; 0x1986 <__addsf3x+0xa2>
    1984:	99 27       	eor	r25, r25
    1986:	ee 0f       	add	r30, r30
    1988:	97 95       	ror	r25
    198a:	87 95       	ror	r24
    198c:	08 95       	ret

0000198e <__cmpsf2>:
    198e:	0e 94 b1 0d 	call	0x1b62	; 0x1b62 <__fp_cmp>
    1992:	08 f4       	brcc	.+2      	; 0x1996 <__cmpsf2+0x8>
    1994:	81 e0       	ldi	r24, 0x01	; 1
    1996:	08 95       	ret

00001998 <__divsf3>:
    1998:	0e 94 e0 0c 	call	0x19c0	; 0x19c0 <__divsf3x>
    199c:	0c 94 ec 0d 	jmp	0x1bd8	; 0x1bd8 <__fp_round>
    19a0:	0e 94 e5 0d 	call	0x1bca	; 0x1bca <__fp_pscB>
    19a4:	58 f0       	brcs	.+22     	; 0x19bc <__divsf3+0x24>
    19a6:	0e 94 de 0d 	call	0x1bbc	; 0x1bbc <__fp_pscA>
    19aa:	40 f0       	brcs	.+16     	; 0x19bc <__divsf3+0x24>
    19ac:	29 f4       	brne	.+10     	; 0x19b8 <__divsf3+0x20>
    19ae:	5f 3f       	cpi	r21, 0xFF	; 255
    19b0:	29 f0       	breq	.+10     	; 0x19bc <__divsf3+0x24>
    19b2:	0c 94 d5 0d 	jmp	0x1baa	; 0x1baa <__fp_inf>
    19b6:	51 11       	cpse	r21, r1
    19b8:	0c 94 20 0e 	jmp	0x1c40	; 0x1c40 <__fp_szero>
    19bc:	0c 94 db 0d 	jmp	0x1bb6	; 0x1bb6 <__fp_nan>

000019c0 <__divsf3x>:
    19c0:	0e 94 fd 0d 	call	0x1bfa	; 0x1bfa <__fp_split3>
    19c4:	68 f3       	brcs	.-38     	; 0x19a0 <__divsf3+0x8>

000019c6 <__divsf3_pse>:
    19c6:	99 23       	and	r25, r25
    19c8:	b1 f3       	breq	.-20     	; 0x19b6 <__divsf3+0x1e>
    19ca:	55 23       	and	r21, r21
    19cc:	91 f3       	breq	.-28     	; 0x19b2 <__divsf3+0x1a>
    19ce:	95 1b       	sub	r25, r21
    19d0:	55 0b       	sbc	r21, r21
    19d2:	bb 27       	eor	r27, r27
    19d4:	aa 27       	eor	r26, r26
    19d6:	62 17       	cp	r22, r18
    19d8:	73 07       	cpc	r23, r19
    19da:	84 07       	cpc	r24, r20
    19dc:	38 f0       	brcs	.+14     	; 0x19ec <__divsf3_pse+0x26>
    19de:	9f 5f       	subi	r25, 0xFF	; 255
    19e0:	5f 4f       	sbci	r21, 0xFF	; 255
    19e2:	22 0f       	add	r18, r18
    19e4:	33 1f       	adc	r19, r19
    19e6:	44 1f       	adc	r20, r20
    19e8:	aa 1f       	adc	r26, r26
    19ea:	a9 f3       	breq	.-22     	; 0x19d6 <__divsf3_pse+0x10>
    19ec:	35 d0       	rcall	.+106    	; 0x1a58 <__divsf3_pse+0x92>
    19ee:	0e 2e       	mov	r0, r30
    19f0:	3a f0       	brmi	.+14     	; 0x1a00 <__divsf3_pse+0x3a>
    19f2:	e0 e8       	ldi	r30, 0x80	; 128
    19f4:	32 d0       	rcall	.+100    	; 0x1a5a <__divsf3_pse+0x94>
    19f6:	91 50       	subi	r25, 0x01	; 1
    19f8:	50 40       	sbci	r21, 0x00	; 0
    19fa:	e6 95       	lsr	r30
    19fc:	00 1c       	adc	r0, r0
    19fe:	ca f7       	brpl	.-14     	; 0x19f2 <__divsf3_pse+0x2c>
    1a00:	2b d0       	rcall	.+86     	; 0x1a58 <__divsf3_pse+0x92>
    1a02:	fe 2f       	mov	r31, r30
    1a04:	29 d0       	rcall	.+82     	; 0x1a58 <__divsf3_pse+0x92>
    1a06:	66 0f       	add	r22, r22
    1a08:	77 1f       	adc	r23, r23
    1a0a:	88 1f       	adc	r24, r24
    1a0c:	bb 1f       	adc	r27, r27
    1a0e:	26 17       	cp	r18, r22
    1a10:	37 07       	cpc	r19, r23
    1a12:	48 07       	cpc	r20, r24
    1a14:	ab 07       	cpc	r26, r27
    1a16:	b0 e8       	ldi	r27, 0x80	; 128
    1a18:	09 f0       	breq	.+2      	; 0x1a1c <__divsf3_pse+0x56>
    1a1a:	bb 0b       	sbc	r27, r27
    1a1c:	80 2d       	mov	r24, r0
    1a1e:	bf 01       	movw	r22, r30
    1a20:	ff 27       	eor	r31, r31
    1a22:	93 58       	subi	r25, 0x83	; 131
    1a24:	5f 4f       	sbci	r21, 0xFF	; 255
    1a26:	3a f0       	brmi	.+14     	; 0x1a36 <__divsf3_pse+0x70>
    1a28:	9e 3f       	cpi	r25, 0xFE	; 254
    1a2a:	51 05       	cpc	r21, r1
    1a2c:	78 f0       	brcs	.+30     	; 0x1a4c <__divsf3_pse+0x86>
    1a2e:	0c 94 d5 0d 	jmp	0x1baa	; 0x1baa <__fp_inf>
    1a32:	0c 94 20 0e 	jmp	0x1c40	; 0x1c40 <__fp_szero>
    1a36:	5f 3f       	cpi	r21, 0xFF	; 255
    1a38:	e4 f3       	brlt	.-8      	; 0x1a32 <__divsf3_pse+0x6c>
    1a3a:	98 3e       	cpi	r25, 0xE8	; 232
    1a3c:	d4 f3       	brlt	.-12     	; 0x1a32 <__divsf3_pse+0x6c>
    1a3e:	86 95       	lsr	r24
    1a40:	77 95       	ror	r23
    1a42:	67 95       	ror	r22
    1a44:	b7 95       	ror	r27
    1a46:	f7 95       	ror	r31
    1a48:	9f 5f       	subi	r25, 0xFF	; 255
    1a4a:	c9 f7       	brne	.-14     	; 0x1a3e <__divsf3_pse+0x78>
    1a4c:	88 0f       	add	r24, r24
    1a4e:	91 1d       	adc	r25, r1
    1a50:	96 95       	lsr	r25
    1a52:	87 95       	ror	r24
    1a54:	97 f9       	bld	r25, 7
    1a56:	08 95       	ret
    1a58:	e1 e0       	ldi	r30, 0x01	; 1
    1a5a:	66 0f       	add	r22, r22
    1a5c:	77 1f       	adc	r23, r23
    1a5e:	88 1f       	adc	r24, r24
    1a60:	bb 1f       	adc	r27, r27
    1a62:	62 17       	cp	r22, r18
    1a64:	73 07       	cpc	r23, r19
    1a66:	84 07       	cpc	r24, r20
    1a68:	ba 07       	cpc	r27, r26
    1a6a:	20 f0       	brcs	.+8      	; 0x1a74 <__divsf3_pse+0xae>
    1a6c:	62 1b       	sub	r22, r18
    1a6e:	73 0b       	sbc	r23, r19
    1a70:	84 0b       	sbc	r24, r20
    1a72:	ba 0b       	sbc	r27, r26
    1a74:	ee 1f       	adc	r30, r30
    1a76:	88 f7       	brcc	.-30     	; 0x1a5a <__divsf3_pse+0x94>
    1a78:	e0 95       	com	r30
    1a7a:	08 95       	ret

00001a7c <__fixsfsi>:
    1a7c:	0e 94 45 0d 	call	0x1a8a	; 0x1a8a <__fixunssfsi>
    1a80:	68 94       	set
    1a82:	b1 11       	cpse	r27, r1
    1a84:	0c 94 20 0e 	jmp	0x1c40	; 0x1c40 <__fp_szero>
    1a88:	08 95       	ret

00001a8a <__fixunssfsi>:
    1a8a:	0e 94 05 0e 	call	0x1c0a	; 0x1c0a <__fp_splitA>
    1a8e:	88 f0       	brcs	.+34     	; 0x1ab2 <__fixunssfsi+0x28>
    1a90:	9f 57       	subi	r25, 0x7F	; 127
    1a92:	98 f0       	brcs	.+38     	; 0x1aba <__fixunssfsi+0x30>
    1a94:	b9 2f       	mov	r27, r25
    1a96:	99 27       	eor	r25, r25
    1a98:	b7 51       	subi	r27, 0x17	; 23
    1a9a:	b0 f0       	brcs	.+44     	; 0x1ac8 <__fixunssfsi+0x3e>
    1a9c:	e1 f0       	breq	.+56     	; 0x1ad6 <__fixunssfsi+0x4c>
    1a9e:	66 0f       	add	r22, r22
    1aa0:	77 1f       	adc	r23, r23
    1aa2:	88 1f       	adc	r24, r24
    1aa4:	99 1f       	adc	r25, r25
    1aa6:	1a f0       	brmi	.+6      	; 0x1aae <__fixunssfsi+0x24>
    1aa8:	ba 95       	dec	r27
    1aaa:	c9 f7       	brne	.-14     	; 0x1a9e <__fixunssfsi+0x14>
    1aac:	14 c0       	rjmp	.+40     	; 0x1ad6 <__fixunssfsi+0x4c>
    1aae:	b1 30       	cpi	r27, 0x01	; 1
    1ab0:	91 f0       	breq	.+36     	; 0x1ad6 <__fixunssfsi+0x4c>
    1ab2:	0e 94 1f 0e 	call	0x1c3e	; 0x1c3e <__fp_zero>
    1ab6:	b1 e0       	ldi	r27, 0x01	; 1
    1ab8:	08 95       	ret
    1aba:	0c 94 1f 0e 	jmp	0x1c3e	; 0x1c3e <__fp_zero>
    1abe:	67 2f       	mov	r22, r23
    1ac0:	78 2f       	mov	r23, r24
    1ac2:	88 27       	eor	r24, r24
    1ac4:	b8 5f       	subi	r27, 0xF8	; 248
    1ac6:	39 f0       	breq	.+14     	; 0x1ad6 <__fixunssfsi+0x4c>
    1ac8:	b9 3f       	cpi	r27, 0xF9	; 249
    1aca:	cc f3       	brlt	.-14     	; 0x1abe <__fixunssfsi+0x34>
    1acc:	86 95       	lsr	r24
    1ace:	77 95       	ror	r23
    1ad0:	67 95       	ror	r22
    1ad2:	b3 95       	inc	r27
    1ad4:	d9 f7       	brne	.-10     	; 0x1acc <__fixunssfsi+0x42>
    1ad6:	3e f4       	brtc	.+14     	; 0x1ae6 <__fixunssfsi+0x5c>
    1ad8:	90 95       	com	r25
    1ada:	80 95       	com	r24
    1adc:	70 95       	com	r23
    1ade:	61 95       	neg	r22
    1ae0:	7f 4f       	sbci	r23, 0xFF	; 255
    1ae2:	8f 4f       	sbci	r24, 0xFF	; 255
    1ae4:	9f 4f       	sbci	r25, 0xFF	; 255
    1ae6:	08 95       	ret

00001ae8 <__floatunsisf>:
    1ae8:	e8 94       	clt
    1aea:	09 c0       	rjmp	.+18     	; 0x1afe <__floatsisf+0x12>

00001aec <__floatsisf>:
    1aec:	97 fb       	bst	r25, 7
    1aee:	3e f4       	brtc	.+14     	; 0x1afe <__floatsisf+0x12>
    1af0:	90 95       	com	r25
    1af2:	80 95       	com	r24
    1af4:	70 95       	com	r23
    1af6:	61 95       	neg	r22
    1af8:	7f 4f       	sbci	r23, 0xFF	; 255
    1afa:	8f 4f       	sbci	r24, 0xFF	; 255
    1afc:	9f 4f       	sbci	r25, 0xFF	; 255
    1afe:	99 23       	and	r25, r25
    1b00:	a9 f0       	breq	.+42     	; 0x1b2c <__floatsisf+0x40>
    1b02:	f9 2f       	mov	r31, r25
    1b04:	96 e9       	ldi	r25, 0x96	; 150
    1b06:	bb 27       	eor	r27, r27
    1b08:	93 95       	inc	r25
    1b0a:	f6 95       	lsr	r31
    1b0c:	87 95       	ror	r24
    1b0e:	77 95       	ror	r23
    1b10:	67 95       	ror	r22
    1b12:	b7 95       	ror	r27
    1b14:	f1 11       	cpse	r31, r1
    1b16:	f8 cf       	rjmp	.-16     	; 0x1b08 <__floatsisf+0x1c>
    1b18:	fa f4       	brpl	.+62     	; 0x1b58 <__floatsisf+0x6c>
    1b1a:	bb 0f       	add	r27, r27
    1b1c:	11 f4       	brne	.+4      	; 0x1b22 <__floatsisf+0x36>
    1b1e:	60 ff       	sbrs	r22, 0
    1b20:	1b c0       	rjmp	.+54     	; 0x1b58 <__floatsisf+0x6c>
    1b22:	6f 5f       	subi	r22, 0xFF	; 255
    1b24:	7f 4f       	sbci	r23, 0xFF	; 255
    1b26:	8f 4f       	sbci	r24, 0xFF	; 255
    1b28:	9f 4f       	sbci	r25, 0xFF	; 255
    1b2a:	16 c0       	rjmp	.+44     	; 0x1b58 <__floatsisf+0x6c>
    1b2c:	88 23       	and	r24, r24
    1b2e:	11 f0       	breq	.+4      	; 0x1b34 <__floatsisf+0x48>
    1b30:	96 e9       	ldi	r25, 0x96	; 150
    1b32:	11 c0       	rjmp	.+34     	; 0x1b56 <__floatsisf+0x6a>
    1b34:	77 23       	and	r23, r23
    1b36:	21 f0       	breq	.+8      	; 0x1b40 <__floatsisf+0x54>
    1b38:	9e e8       	ldi	r25, 0x8E	; 142
    1b3a:	87 2f       	mov	r24, r23
    1b3c:	76 2f       	mov	r23, r22
    1b3e:	05 c0       	rjmp	.+10     	; 0x1b4a <__floatsisf+0x5e>
    1b40:	66 23       	and	r22, r22
    1b42:	71 f0       	breq	.+28     	; 0x1b60 <__floatsisf+0x74>
    1b44:	96 e8       	ldi	r25, 0x86	; 134
    1b46:	86 2f       	mov	r24, r22
    1b48:	70 e0       	ldi	r23, 0x00	; 0
    1b4a:	60 e0       	ldi	r22, 0x00	; 0
    1b4c:	2a f0       	brmi	.+10     	; 0x1b58 <__floatsisf+0x6c>
    1b4e:	9a 95       	dec	r25
    1b50:	66 0f       	add	r22, r22
    1b52:	77 1f       	adc	r23, r23
    1b54:	88 1f       	adc	r24, r24
    1b56:	da f7       	brpl	.-10     	; 0x1b4e <__floatsisf+0x62>
    1b58:	88 0f       	add	r24, r24
    1b5a:	96 95       	lsr	r25
    1b5c:	87 95       	ror	r24
    1b5e:	97 f9       	bld	r25, 7
    1b60:	08 95       	ret

00001b62 <__fp_cmp>:
    1b62:	99 0f       	add	r25, r25
    1b64:	00 08       	sbc	r0, r0
    1b66:	55 0f       	add	r21, r21
    1b68:	aa 0b       	sbc	r26, r26
    1b6a:	e0 e8       	ldi	r30, 0x80	; 128
    1b6c:	fe ef       	ldi	r31, 0xFE	; 254
    1b6e:	16 16       	cp	r1, r22
    1b70:	17 06       	cpc	r1, r23
    1b72:	e8 07       	cpc	r30, r24
    1b74:	f9 07       	cpc	r31, r25
    1b76:	c0 f0       	brcs	.+48     	; 0x1ba8 <__fp_cmp+0x46>
    1b78:	12 16       	cp	r1, r18
    1b7a:	13 06       	cpc	r1, r19
    1b7c:	e4 07       	cpc	r30, r20
    1b7e:	f5 07       	cpc	r31, r21
    1b80:	98 f0       	brcs	.+38     	; 0x1ba8 <__fp_cmp+0x46>
    1b82:	62 1b       	sub	r22, r18
    1b84:	73 0b       	sbc	r23, r19
    1b86:	84 0b       	sbc	r24, r20
    1b88:	95 0b       	sbc	r25, r21
    1b8a:	39 f4       	brne	.+14     	; 0x1b9a <__fp_cmp+0x38>
    1b8c:	0a 26       	eor	r0, r26
    1b8e:	61 f0       	breq	.+24     	; 0x1ba8 <__fp_cmp+0x46>
    1b90:	23 2b       	or	r18, r19
    1b92:	24 2b       	or	r18, r20
    1b94:	25 2b       	or	r18, r21
    1b96:	21 f4       	brne	.+8      	; 0x1ba0 <__fp_cmp+0x3e>
    1b98:	08 95       	ret
    1b9a:	0a 26       	eor	r0, r26
    1b9c:	09 f4       	brne	.+2      	; 0x1ba0 <__fp_cmp+0x3e>
    1b9e:	a1 40       	sbci	r26, 0x01	; 1
    1ba0:	a6 95       	lsr	r26
    1ba2:	8f ef       	ldi	r24, 0xFF	; 255
    1ba4:	81 1d       	adc	r24, r1
    1ba6:	81 1d       	adc	r24, r1
    1ba8:	08 95       	ret

00001baa <__fp_inf>:
    1baa:	97 f9       	bld	r25, 7
    1bac:	9f 67       	ori	r25, 0x7F	; 127
    1bae:	80 e8       	ldi	r24, 0x80	; 128
    1bb0:	70 e0       	ldi	r23, 0x00	; 0
    1bb2:	60 e0       	ldi	r22, 0x00	; 0
    1bb4:	08 95       	ret

00001bb6 <__fp_nan>:
    1bb6:	9f ef       	ldi	r25, 0xFF	; 255
    1bb8:	80 ec       	ldi	r24, 0xC0	; 192
    1bba:	08 95       	ret

00001bbc <__fp_pscA>:
    1bbc:	00 24       	eor	r0, r0
    1bbe:	0a 94       	dec	r0
    1bc0:	16 16       	cp	r1, r22
    1bc2:	17 06       	cpc	r1, r23
    1bc4:	18 06       	cpc	r1, r24
    1bc6:	09 06       	cpc	r0, r25
    1bc8:	08 95       	ret

00001bca <__fp_pscB>:
    1bca:	00 24       	eor	r0, r0
    1bcc:	0a 94       	dec	r0
    1bce:	12 16       	cp	r1, r18
    1bd0:	13 06       	cpc	r1, r19
    1bd2:	14 06       	cpc	r1, r20
    1bd4:	05 06       	cpc	r0, r21
    1bd6:	08 95       	ret

00001bd8 <__fp_round>:
    1bd8:	09 2e       	mov	r0, r25
    1bda:	03 94       	inc	r0
    1bdc:	00 0c       	add	r0, r0
    1bde:	11 f4       	brne	.+4      	; 0x1be4 <__fp_round+0xc>
    1be0:	88 23       	and	r24, r24
    1be2:	52 f0       	brmi	.+20     	; 0x1bf8 <__fp_round+0x20>
    1be4:	bb 0f       	add	r27, r27
    1be6:	40 f4       	brcc	.+16     	; 0x1bf8 <__fp_round+0x20>
    1be8:	bf 2b       	or	r27, r31
    1bea:	11 f4       	brne	.+4      	; 0x1bf0 <__fp_round+0x18>
    1bec:	60 ff       	sbrs	r22, 0
    1bee:	04 c0       	rjmp	.+8      	; 0x1bf8 <__fp_round+0x20>
    1bf0:	6f 5f       	subi	r22, 0xFF	; 255
    1bf2:	7f 4f       	sbci	r23, 0xFF	; 255
    1bf4:	8f 4f       	sbci	r24, 0xFF	; 255
    1bf6:	9f 4f       	sbci	r25, 0xFF	; 255
    1bf8:	08 95       	ret

00001bfa <__fp_split3>:
    1bfa:	57 fd       	sbrc	r21, 7
    1bfc:	90 58       	subi	r25, 0x80	; 128
    1bfe:	44 0f       	add	r20, r20
    1c00:	55 1f       	adc	r21, r21
    1c02:	59 f0       	breq	.+22     	; 0x1c1a <__fp_splitA+0x10>
    1c04:	5f 3f       	cpi	r21, 0xFF	; 255
    1c06:	71 f0       	breq	.+28     	; 0x1c24 <__fp_splitA+0x1a>
    1c08:	47 95       	ror	r20

00001c0a <__fp_splitA>:
    1c0a:	88 0f       	add	r24, r24
    1c0c:	97 fb       	bst	r25, 7
    1c0e:	99 1f       	adc	r25, r25
    1c10:	61 f0       	breq	.+24     	; 0x1c2a <__fp_splitA+0x20>
    1c12:	9f 3f       	cpi	r25, 0xFF	; 255
    1c14:	79 f0       	breq	.+30     	; 0x1c34 <__fp_splitA+0x2a>
    1c16:	87 95       	ror	r24
    1c18:	08 95       	ret
    1c1a:	12 16       	cp	r1, r18
    1c1c:	13 06       	cpc	r1, r19
    1c1e:	14 06       	cpc	r1, r20
    1c20:	55 1f       	adc	r21, r21
    1c22:	f2 cf       	rjmp	.-28     	; 0x1c08 <__fp_split3+0xe>
    1c24:	46 95       	lsr	r20
    1c26:	f1 df       	rcall	.-30     	; 0x1c0a <__fp_splitA>
    1c28:	08 c0       	rjmp	.+16     	; 0x1c3a <__fp_splitA+0x30>
    1c2a:	16 16       	cp	r1, r22
    1c2c:	17 06       	cpc	r1, r23
    1c2e:	18 06       	cpc	r1, r24
    1c30:	99 1f       	adc	r25, r25
    1c32:	f1 cf       	rjmp	.-30     	; 0x1c16 <__fp_splitA+0xc>
    1c34:	86 95       	lsr	r24
    1c36:	71 05       	cpc	r23, r1
    1c38:	61 05       	cpc	r22, r1
    1c3a:	08 94       	sec
    1c3c:	08 95       	ret

00001c3e <__fp_zero>:
    1c3e:	e8 94       	clt

00001c40 <__fp_szero>:
    1c40:	bb 27       	eor	r27, r27
    1c42:	66 27       	eor	r22, r22
    1c44:	77 27       	eor	r23, r23
    1c46:	cb 01       	movw	r24, r22
    1c48:	97 f9       	bld	r25, 7
    1c4a:	08 95       	ret

00001c4c <__gesf2>:
    1c4c:	0e 94 b1 0d 	call	0x1b62	; 0x1b62 <__fp_cmp>
    1c50:	08 f4       	brcc	.+2      	; 0x1c54 <__gesf2+0x8>
    1c52:	8f ef       	ldi	r24, 0xFF	; 255
    1c54:	08 95       	ret

00001c56 <__mulsf3>:
    1c56:	0e 94 3e 0e 	call	0x1c7c	; 0x1c7c <__mulsf3x>
    1c5a:	0c 94 ec 0d 	jmp	0x1bd8	; 0x1bd8 <__fp_round>
    1c5e:	0e 94 de 0d 	call	0x1bbc	; 0x1bbc <__fp_pscA>
    1c62:	38 f0       	brcs	.+14     	; 0x1c72 <__mulsf3+0x1c>
    1c64:	0e 94 e5 0d 	call	0x1bca	; 0x1bca <__fp_pscB>
    1c68:	20 f0       	brcs	.+8      	; 0x1c72 <__mulsf3+0x1c>
    1c6a:	95 23       	and	r25, r21
    1c6c:	11 f0       	breq	.+4      	; 0x1c72 <__mulsf3+0x1c>
    1c6e:	0c 94 d5 0d 	jmp	0x1baa	; 0x1baa <__fp_inf>
    1c72:	0c 94 db 0d 	jmp	0x1bb6	; 0x1bb6 <__fp_nan>
    1c76:	11 24       	eor	r1, r1
    1c78:	0c 94 20 0e 	jmp	0x1c40	; 0x1c40 <__fp_szero>

00001c7c <__mulsf3x>:
    1c7c:	0e 94 fd 0d 	call	0x1bfa	; 0x1bfa <__fp_split3>
    1c80:	70 f3       	brcs	.-36     	; 0x1c5e <__mulsf3+0x8>

00001c82 <__mulsf3_pse>:
    1c82:	95 9f       	mul	r25, r21
    1c84:	c1 f3       	breq	.-16     	; 0x1c76 <__mulsf3+0x20>
    1c86:	95 0f       	add	r25, r21
    1c88:	50 e0       	ldi	r21, 0x00	; 0
    1c8a:	55 1f       	adc	r21, r21
    1c8c:	62 9f       	mul	r22, r18
    1c8e:	f0 01       	movw	r30, r0
    1c90:	72 9f       	mul	r23, r18
    1c92:	bb 27       	eor	r27, r27
    1c94:	f0 0d       	add	r31, r0
    1c96:	b1 1d       	adc	r27, r1
    1c98:	63 9f       	mul	r22, r19
    1c9a:	aa 27       	eor	r26, r26
    1c9c:	f0 0d       	add	r31, r0
    1c9e:	b1 1d       	adc	r27, r1
    1ca0:	aa 1f       	adc	r26, r26
    1ca2:	64 9f       	mul	r22, r20
    1ca4:	66 27       	eor	r22, r22
    1ca6:	b0 0d       	add	r27, r0
    1ca8:	a1 1d       	adc	r26, r1
    1caa:	66 1f       	adc	r22, r22
    1cac:	82 9f       	mul	r24, r18
    1cae:	22 27       	eor	r18, r18
    1cb0:	b0 0d       	add	r27, r0
    1cb2:	a1 1d       	adc	r26, r1
    1cb4:	62 1f       	adc	r22, r18
    1cb6:	73 9f       	mul	r23, r19
    1cb8:	b0 0d       	add	r27, r0
    1cba:	a1 1d       	adc	r26, r1
    1cbc:	62 1f       	adc	r22, r18
    1cbe:	83 9f       	mul	r24, r19
    1cc0:	a0 0d       	add	r26, r0
    1cc2:	61 1d       	adc	r22, r1
    1cc4:	22 1f       	adc	r18, r18
    1cc6:	74 9f       	mul	r23, r20
    1cc8:	33 27       	eor	r19, r19
    1cca:	a0 0d       	add	r26, r0
    1ccc:	61 1d       	adc	r22, r1
    1cce:	23 1f       	adc	r18, r19
    1cd0:	84 9f       	mul	r24, r20
    1cd2:	60 0d       	add	r22, r0
    1cd4:	21 1d       	adc	r18, r1
    1cd6:	82 2f       	mov	r24, r18
    1cd8:	76 2f       	mov	r23, r22
    1cda:	6a 2f       	mov	r22, r26
    1cdc:	11 24       	eor	r1, r1
    1cde:	9f 57       	subi	r25, 0x7F	; 127
    1ce0:	50 40       	sbci	r21, 0x00	; 0
    1ce2:	9a f0       	brmi	.+38     	; 0x1d0a <__mulsf3_pse+0x88>
    1ce4:	f1 f0       	breq	.+60     	; 0x1d22 <__mulsf3_pse+0xa0>
    1ce6:	88 23       	and	r24, r24
    1ce8:	4a f0       	brmi	.+18     	; 0x1cfc <__mulsf3_pse+0x7a>
    1cea:	ee 0f       	add	r30, r30
    1cec:	ff 1f       	adc	r31, r31
    1cee:	bb 1f       	adc	r27, r27
    1cf0:	66 1f       	adc	r22, r22
    1cf2:	77 1f       	adc	r23, r23
    1cf4:	88 1f       	adc	r24, r24
    1cf6:	91 50       	subi	r25, 0x01	; 1
    1cf8:	50 40       	sbci	r21, 0x00	; 0
    1cfa:	a9 f7       	brne	.-22     	; 0x1ce6 <__mulsf3_pse+0x64>
    1cfc:	9e 3f       	cpi	r25, 0xFE	; 254
    1cfe:	51 05       	cpc	r21, r1
    1d00:	80 f0       	brcs	.+32     	; 0x1d22 <__mulsf3_pse+0xa0>
    1d02:	0c 94 d5 0d 	jmp	0x1baa	; 0x1baa <__fp_inf>
    1d06:	0c 94 20 0e 	jmp	0x1c40	; 0x1c40 <__fp_szero>
    1d0a:	5f 3f       	cpi	r21, 0xFF	; 255
    1d0c:	e4 f3       	brlt	.-8      	; 0x1d06 <__mulsf3_pse+0x84>
    1d0e:	98 3e       	cpi	r25, 0xE8	; 232
    1d10:	d4 f3       	brlt	.-12     	; 0x1d06 <__mulsf3_pse+0x84>
    1d12:	86 95       	lsr	r24
    1d14:	77 95       	ror	r23
    1d16:	67 95       	ror	r22
    1d18:	b7 95       	ror	r27
    1d1a:	f7 95       	ror	r31
    1d1c:	e7 95       	ror	r30
    1d1e:	9f 5f       	subi	r25, 0xFF	; 255
    1d20:	c1 f7       	brne	.-16     	; 0x1d12 <__mulsf3_pse+0x90>
    1d22:	fe 2b       	or	r31, r30
    1d24:	88 0f       	add	r24, r24
    1d26:	91 1d       	adc	r25, r1
    1d28:	96 95       	lsr	r25
    1d2a:	87 95       	ror	r24
    1d2c:	97 f9       	bld	r25, 7
    1d2e:	08 95       	ret

00001d30 <__udivmodqi4>:
    1d30:	99 1b       	sub	r25, r25
    1d32:	79 e0       	ldi	r23, 0x09	; 9
    1d34:	04 c0       	rjmp	.+8      	; 0x1d3e <__udivmodqi4_ep>

00001d36 <__udivmodqi4_loop>:
    1d36:	99 1f       	adc	r25, r25
    1d38:	96 17       	cp	r25, r22
    1d3a:	08 f0       	brcs	.+2      	; 0x1d3e <__udivmodqi4_ep>
    1d3c:	96 1b       	sub	r25, r22

00001d3e <__udivmodqi4_ep>:
    1d3e:	88 1f       	adc	r24, r24
    1d40:	7a 95       	dec	r23
    1d42:	c9 f7       	brne	.-14     	; 0x1d36 <__udivmodqi4_loop>
    1d44:	80 95       	com	r24
    1d46:	08 95       	ret

00001d48 <snprintf>:
    1d48:	ae e0       	ldi	r26, 0x0E	; 14
    1d4a:	b0 e0       	ldi	r27, 0x00	; 0
    1d4c:	ea ea       	ldi	r30, 0xAA	; 170
    1d4e:	fe e0       	ldi	r31, 0x0E	; 14
    1d50:	0c 94 73 11 	jmp	0x22e6	; 0x22e6 <__prologue_saves__+0x1c>
    1d54:	0d 89       	ldd	r16, Y+21	; 0x15
    1d56:	1e 89       	ldd	r17, Y+22	; 0x16
    1d58:	8f 89       	ldd	r24, Y+23	; 0x17
    1d5a:	98 8d       	ldd	r25, Y+24	; 0x18
    1d5c:	26 e0       	ldi	r18, 0x06	; 6
    1d5e:	2c 83       	std	Y+4, r18	; 0x04
    1d60:	1a 83       	std	Y+2, r17	; 0x02
    1d62:	09 83       	std	Y+1, r16	; 0x01
    1d64:	97 ff       	sbrs	r25, 7
    1d66:	02 c0       	rjmp	.+4      	; 0x1d6c <snprintf+0x24>
    1d68:	80 e0       	ldi	r24, 0x00	; 0
    1d6a:	90 e8       	ldi	r25, 0x80	; 128
    1d6c:	01 97       	sbiw	r24, 0x01	; 1
    1d6e:	9e 83       	std	Y+6, r25	; 0x06
    1d70:	8d 83       	std	Y+5, r24	; 0x05
    1d72:	ae 01       	movw	r20, r28
    1d74:	45 5e       	subi	r20, 0xE5	; 229
    1d76:	5f 4f       	sbci	r21, 0xFF	; 255
    1d78:	69 8d       	ldd	r22, Y+25	; 0x19
    1d7a:	7a 8d       	ldd	r23, Y+26	; 0x1a
    1d7c:	ce 01       	movw	r24, r28
    1d7e:	01 96       	adiw	r24, 0x01	; 1
    1d80:	0e 94 d4 0e 	call	0x1da8	; 0x1da8 <vfprintf>
    1d84:	4d 81       	ldd	r20, Y+5	; 0x05
    1d86:	5e 81       	ldd	r21, Y+6	; 0x06
    1d88:	57 fd       	sbrc	r21, 7
    1d8a:	0a c0       	rjmp	.+20     	; 0x1da0 <snprintf+0x58>
    1d8c:	2f 81       	ldd	r18, Y+7	; 0x07
    1d8e:	38 85       	ldd	r19, Y+8	; 0x08
    1d90:	42 17       	cp	r20, r18
    1d92:	53 07       	cpc	r21, r19
    1d94:	0c f4       	brge	.+2      	; 0x1d98 <snprintf+0x50>
    1d96:	9a 01       	movw	r18, r20
    1d98:	f8 01       	movw	r30, r16
    1d9a:	e2 0f       	add	r30, r18
    1d9c:	f3 1f       	adc	r31, r19
    1d9e:	10 82       	st	Z, r1
    1da0:	2e 96       	adiw	r28, 0x0e	; 14
    1da2:	e4 e0       	ldi	r30, 0x04	; 4
    1da4:	0c 94 8f 11 	jmp	0x231e	; 0x231e <__epilogue_restores__+0x1c>

00001da8 <vfprintf>:
    1da8:	ab e0       	ldi	r26, 0x0B	; 11
    1daa:	b0 e0       	ldi	r27, 0x00	; 0
    1dac:	ea ed       	ldi	r30, 0xDA	; 218
    1dae:	fe e0       	ldi	r31, 0x0E	; 14
    1db0:	0c 94 65 11 	jmp	0x22ca	; 0x22ca <__prologue_saves__>
    1db4:	6c 01       	movw	r12, r24
    1db6:	7b 01       	movw	r14, r22
    1db8:	8a 01       	movw	r16, r20
    1dba:	fc 01       	movw	r30, r24
    1dbc:	17 82       	std	Z+7, r1	; 0x07
    1dbe:	16 82       	std	Z+6, r1	; 0x06
    1dc0:	83 81       	ldd	r24, Z+3	; 0x03
    1dc2:	81 ff       	sbrs	r24, 1
    1dc4:	cc c1       	rjmp	.+920    	; 0x215e <vfprintf+0x3b6>
    1dc6:	ce 01       	movw	r24, r28
    1dc8:	01 96       	adiw	r24, 0x01	; 1
    1dca:	3c 01       	movw	r6, r24
    1dcc:	f6 01       	movw	r30, r12
    1dce:	93 81       	ldd	r25, Z+3	; 0x03
    1dd0:	f7 01       	movw	r30, r14
    1dd2:	93 fd       	sbrc	r25, 3
    1dd4:	85 91       	lpm	r24, Z+
    1dd6:	93 ff       	sbrs	r25, 3
    1dd8:	81 91       	ld	r24, Z+
    1dda:	7f 01       	movw	r14, r30
    1ddc:	88 23       	and	r24, r24
    1dde:	09 f4       	brne	.+2      	; 0x1de2 <vfprintf+0x3a>
    1de0:	ba c1       	rjmp	.+884    	; 0x2156 <vfprintf+0x3ae>
    1de2:	85 32       	cpi	r24, 0x25	; 37
    1de4:	39 f4       	brne	.+14     	; 0x1df4 <vfprintf+0x4c>
    1de6:	93 fd       	sbrc	r25, 3
    1de8:	85 91       	lpm	r24, Z+
    1dea:	93 ff       	sbrs	r25, 3
    1dec:	81 91       	ld	r24, Z+
    1dee:	7f 01       	movw	r14, r30
    1df0:	85 32       	cpi	r24, 0x25	; 37
    1df2:	29 f4       	brne	.+10     	; 0x1dfe <vfprintf+0x56>
    1df4:	b6 01       	movw	r22, r12
    1df6:	90 e0       	ldi	r25, 0x00	; 0
    1df8:	0e 94 cb 10 	call	0x2196	; 0x2196 <fputc>
    1dfc:	e7 cf       	rjmp	.-50     	; 0x1dcc <vfprintf+0x24>
    1dfe:	91 2c       	mov	r9, r1
    1e00:	21 2c       	mov	r2, r1
    1e02:	31 2c       	mov	r3, r1
    1e04:	ff e1       	ldi	r31, 0x1F	; 31
    1e06:	f3 15       	cp	r31, r3
    1e08:	d8 f0       	brcs	.+54     	; 0x1e40 <vfprintf+0x98>
    1e0a:	8b 32       	cpi	r24, 0x2B	; 43
    1e0c:	79 f0       	breq	.+30     	; 0x1e2c <vfprintf+0x84>
    1e0e:	38 f4       	brcc	.+14     	; 0x1e1e <vfprintf+0x76>
    1e10:	80 32       	cpi	r24, 0x20	; 32
    1e12:	79 f0       	breq	.+30     	; 0x1e32 <vfprintf+0x8a>
    1e14:	83 32       	cpi	r24, 0x23	; 35
    1e16:	a1 f4       	brne	.+40     	; 0x1e40 <vfprintf+0x98>
    1e18:	23 2d       	mov	r18, r3
    1e1a:	20 61       	ori	r18, 0x10	; 16
    1e1c:	1d c0       	rjmp	.+58     	; 0x1e58 <vfprintf+0xb0>
    1e1e:	8d 32       	cpi	r24, 0x2D	; 45
    1e20:	61 f0       	breq	.+24     	; 0x1e3a <vfprintf+0x92>
    1e22:	80 33       	cpi	r24, 0x30	; 48
    1e24:	69 f4       	brne	.+26     	; 0x1e40 <vfprintf+0x98>
    1e26:	23 2d       	mov	r18, r3
    1e28:	21 60       	ori	r18, 0x01	; 1
    1e2a:	16 c0       	rjmp	.+44     	; 0x1e58 <vfprintf+0xb0>
    1e2c:	83 2d       	mov	r24, r3
    1e2e:	82 60       	ori	r24, 0x02	; 2
    1e30:	38 2e       	mov	r3, r24
    1e32:	e3 2d       	mov	r30, r3
    1e34:	e4 60       	ori	r30, 0x04	; 4
    1e36:	3e 2e       	mov	r3, r30
    1e38:	2a c0       	rjmp	.+84     	; 0x1e8e <vfprintf+0xe6>
    1e3a:	f3 2d       	mov	r31, r3
    1e3c:	f8 60       	ori	r31, 0x08	; 8
    1e3e:	1d c0       	rjmp	.+58     	; 0x1e7a <vfprintf+0xd2>
    1e40:	37 fc       	sbrc	r3, 7
    1e42:	2d c0       	rjmp	.+90     	; 0x1e9e <vfprintf+0xf6>
    1e44:	20 ed       	ldi	r18, 0xD0	; 208
    1e46:	28 0f       	add	r18, r24
    1e48:	2a 30       	cpi	r18, 0x0A	; 10
    1e4a:	40 f0       	brcs	.+16     	; 0x1e5c <vfprintf+0xb4>
    1e4c:	8e 32       	cpi	r24, 0x2E	; 46
    1e4e:	b9 f4       	brne	.+46     	; 0x1e7e <vfprintf+0xd6>
    1e50:	36 fc       	sbrc	r3, 6
    1e52:	81 c1       	rjmp	.+770    	; 0x2156 <vfprintf+0x3ae>
    1e54:	23 2d       	mov	r18, r3
    1e56:	20 64       	ori	r18, 0x40	; 64
    1e58:	32 2e       	mov	r3, r18
    1e5a:	19 c0       	rjmp	.+50     	; 0x1e8e <vfprintf+0xe6>
    1e5c:	36 fe       	sbrs	r3, 6
    1e5e:	06 c0       	rjmp	.+12     	; 0x1e6c <vfprintf+0xc4>
    1e60:	8a e0       	ldi	r24, 0x0A	; 10
    1e62:	98 9e       	mul	r9, r24
    1e64:	20 0d       	add	r18, r0
    1e66:	11 24       	eor	r1, r1
    1e68:	92 2e       	mov	r9, r18
    1e6a:	11 c0       	rjmp	.+34     	; 0x1e8e <vfprintf+0xe6>
    1e6c:	ea e0       	ldi	r30, 0x0A	; 10
    1e6e:	2e 9e       	mul	r2, r30
    1e70:	20 0d       	add	r18, r0
    1e72:	11 24       	eor	r1, r1
    1e74:	22 2e       	mov	r2, r18
    1e76:	f3 2d       	mov	r31, r3
    1e78:	f0 62       	ori	r31, 0x20	; 32
    1e7a:	3f 2e       	mov	r3, r31
    1e7c:	08 c0       	rjmp	.+16     	; 0x1e8e <vfprintf+0xe6>
    1e7e:	8c 36       	cpi	r24, 0x6C	; 108
    1e80:	21 f4       	brne	.+8      	; 0x1e8a <vfprintf+0xe2>
    1e82:	83 2d       	mov	r24, r3
    1e84:	80 68       	ori	r24, 0x80	; 128
    1e86:	38 2e       	mov	r3, r24
    1e88:	02 c0       	rjmp	.+4      	; 0x1e8e <vfprintf+0xe6>
    1e8a:	88 36       	cpi	r24, 0x68	; 104
    1e8c:	41 f4       	brne	.+16     	; 0x1e9e <vfprintf+0xf6>
    1e8e:	f7 01       	movw	r30, r14
    1e90:	93 fd       	sbrc	r25, 3
    1e92:	85 91       	lpm	r24, Z+
    1e94:	93 ff       	sbrs	r25, 3
    1e96:	81 91       	ld	r24, Z+
    1e98:	7f 01       	movw	r14, r30
    1e9a:	81 11       	cpse	r24, r1
    1e9c:	b3 cf       	rjmp	.-154    	; 0x1e04 <vfprintf+0x5c>
    1e9e:	98 2f       	mov	r25, r24
    1ea0:	9f 7d       	andi	r25, 0xDF	; 223
    1ea2:	95 54       	subi	r25, 0x45	; 69
    1ea4:	93 30       	cpi	r25, 0x03	; 3
    1ea6:	28 f4       	brcc	.+10     	; 0x1eb2 <vfprintf+0x10a>
    1ea8:	0c 5f       	subi	r16, 0xFC	; 252
    1eaa:	1f 4f       	sbci	r17, 0xFF	; 255
    1eac:	9f e3       	ldi	r25, 0x3F	; 63
    1eae:	99 83       	std	Y+1, r25	; 0x01
    1eb0:	0d c0       	rjmp	.+26     	; 0x1ecc <vfprintf+0x124>
    1eb2:	83 36       	cpi	r24, 0x63	; 99
    1eb4:	31 f0       	breq	.+12     	; 0x1ec2 <vfprintf+0x11a>
    1eb6:	83 37       	cpi	r24, 0x73	; 115
    1eb8:	71 f0       	breq	.+28     	; 0x1ed6 <vfprintf+0x12e>
    1eba:	83 35       	cpi	r24, 0x53	; 83
    1ebc:	09 f0       	breq	.+2      	; 0x1ec0 <vfprintf+0x118>
    1ebe:	59 c0       	rjmp	.+178    	; 0x1f72 <vfprintf+0x1ca>
    1ec0:	21 c0       	rjmp	.+66     	; 0x1f04 <vfprintf+0x15c>
    1ec2:	f8 01       	movw	r30, r16
    1ec4:	80 81       	ld	r24, Z
    1ec6:	89 83       	std	Y+1, r24	; 0x01
    1ec8:	0e 5f       	subi	r16, 0xFE	; 254
    1eca:	1f 4f       	sbci	r17, 0xFF	; 255
    1ecc:	88 24       	eor	r8, r8
    1ece:	83 94       	inc	r8
    1ed0:	91 2c       	mov	r9, r1
    1ed2:	53 01       	movw	r10, r6
    1ed4:	13 c0       	rjmp	.+38     	; 0x1efc <vfprintf+0x154>
    1ed6:	28 01       	movw	r4, r16
    1ed8:	f2 e0       	ldi	r31, 0x02	; 2
    1eda:	4f 0e       	add	r4, r31
    1edc:	51 1c       	adc	r5, r1
    1ede:	f8 01       	movw	r30, r16
    1ee0:	a0 80       	ld	r10, Z
    1ee2:	b1 80       	ldd	r11, Z+1	; 0x01
    1ee4:	36 fe       	sbrs	r3, 6
    1ee6:	03 c0       	rjmp	.+6      	; 0x1eee <vfprintf+0x146>
    1ee8:	69 2d       	mov	r22, r9
    1eea:	70 e0       	ldi	r23, 0x00	; 0
    1eec:	02 c0       	rjmp	.+4      	; 0x1ef2 <vfprintf+0x14a>
    1eee:	6f ef       	ldi	r22, 0xFF	; 255
    1ef0:	7f ef       	ldi	r23, 0xFF	; 255
    1ef2:	c5 01       	movw	r24, r10
    1ef4:	0e 94 c0 10 	call	0x2180	; 0x2180 <strnlen>
    1ef8:	4c 01       	movw	r8, r24
    1efa:	82 01       	movw	r16, r4
    1efc:	f3 2d       	mov	r31, r3
    1efe:	ff 77       	andi	r31, 0x7F	; 127
    1f00:	3f 2e       	mov	r3, r31
    1f02:	16 c0       	rjmp	.+44     	; 0x1f30 <vfprintf+0x188>
    1f04:	28 01       	movw	r4, r16
    1f06:	22 e0       	ldi	r18, 0x02	; 2
    1f08:	42 0e       	add	r4, r18
    1f0a:	51 1c       	adc	r5, r1
    1f0c:	f8 01       	movw	r30, r16
    1f0e:	a0 80       	ld	r10, Z
    1f10:	b1 80       	ldd	r11, Z+1	; 0x01
    1f12:	36 fe       	sbrs	r3, 6
    1f14:	03 c0       	rjmp	.+6      	; 0x1f1c <vfprintf+0x174>
    1f16:	69 2d       	mov	r22, r9
    1f18:	70 e0       	ldi	r23, 0x00	; 0
    1f1a:	02 c0       	rjmp	.+4      	; 0x1f20 <vfprintf+0x178>
    1f1c:	6f ef       	ldi	r22, 0xFF	; 255
    1f1e:	7f ef       	ldi	r23, 0xFF	; 255
    1f20:	c5 01       	movw	r24, r10
    1f22:	0e 94 b5 10 	call	0x216a	; 0x216a <strnlen_P>
    1f26:	4c 01       	movw	r8, r24
    1f28:	f3 2d       	mov	r31, r3
    1f2a:	f0 68       	ori	r31, 0x80	; 128
    1f2c:	3f 2e       	mov	r3, r31
    1f2e:	82 01       	movw	r16, r4
    1f30:	33 fc       	sbrc	r3, 3
    1f32:	1b c0       	rjmp	.+54     	; 0x1f6a <vfprintf+0x1c2>
    1f34:	82 2d       	mov	r24, r2
    1f36:	90 e0       	ldi	r25, 0x00	; 0
    1f38:	88 16       	cp	r8, r24
    1f3a:	99 06       	cpc	r9, r25
    1f3c:	b0 f4       	brcc	.+44     	; 0x1f6a <vfprintf+0x1c2>
    1f3e:	b6 01       	movw	r22, r12
    1f40:	80 e2       	ldi	r24, 0x20	; 32
    1f42:	90 e0       	ldi	r25, 0x00	; 0
    1f44:	0e 94 cb 10 	call	0x2196	; 0x2196 <fputc>
    1f48:	2a 94       	dec	r2
    1f4a:	f4 cf       	rjmp	.-24     	; 0x1f34 <vfprintf+0x18c>
    1f4c:	f5 01       	movw	r30, r10
    1f4e:	37 fc       	sbrc	r3, 7
    1f50:	85 91       	lpm	r24, Z+
    1f52:	37 fe       	sbrs	r3, 7
    1f54:	81 91       	ld	r24, Z+
    1f56:	5f 01       	movw	r10, r30
    1f58:	b6 01       	movw	r22, r12
    1f5a:	90 e0       	ldi	r25, 0x00	; 0
    1f5c:	0e 94 cb 10 	call	0x2196	; 0x2196 <fputc>
    1f60:	21 10       	cpse	r2, r1
    1f62:	2a 94       	dec	r2
    1f64:	21 e0       	ldi	r18, 0x01	; 1
    1f66:	82 1a       	sub	r8, r18
    1f68:	91 08       	sbc	r9, r1
    1f6a:	81 14       	cp	r8, r1
    1f6c:	91 04       	cpc	r9, r1
    1f6e:	71 f7       	brne	.-36     	; 0x1f4c <vfprintf+0x1a4>
    1f70:	e8 c0       	rjmp	.+464    	; 0x2142 <vfprintf+0x39a>
    1f72:	84 36       	cpi	r24, 0x64	; 100
    1f74:	11 f0       	breq	.+4      	; 0x1f7a <vfprintf+0x1d2>
    1f76:	89 36       	cpi	r24, 0x69	; 105
    1f78:	41 f5       	brne	.+80     	; 0x1fca <vfprintf+0x222>
    1f7a:	f8 01       	movw	r30, r16
    1f7c:	37 fe       	sbrs	r3, 7
    1f7e:	07 c0       	rjmp	.+14     	; 0x1f8e <vfprintf+0x1e6>
    1f80:	60 81       	ld	r22, Z
    1f82:	71 81       	ldd	r23, Z+1	; 0x01
    1f84:	82 81       	ldd	r24, Z+2	; 0x02
    1f86:	93 81       	ldd	r25, Z+3	; 0x03
    1f88:	0c 5f       	subi	r16, 0xFC	; 252
    1f8a:	1f 4f       	sbci	r17, 0xFF	; 255
    1f8c:	08 c0       	rjmp	.+16     	; 0x1f9e <vfprintf+0x1f6>
    1f8e:	60 81       	ld	r22, Z
    1f90:	71 81       	ldd	r23, Z+1	; 0x01
    1f92:	07 2e       	mov	r0, r23
    1f94:	00 0c       	add	r0, r0
    1f96:	88 0b       	sbc	r24, r24
    1f98:	99 0b       	sbc	r25, r25
    1f9a:	0e 5f       	subi	r16, 0xFE	; 254
    1f9c:	1f 4f       	sbci	r17, 0xFF	; 255
    1f9e:	f3 2d       	mov	r31, r3
    1fa0:	ff 76       	andi	r31, 0x6F	; 111
    1fa2:	3f 2e       	mov	r3, r31
    1fa4:	97 ff       	sbrs	r25, 7
    1fa6:	09 c0       	rjmp	.+18     	; 0x1fba <vfprintf+0x212>
    1fa8:	90 95       	com	r25
    1faa:	80 95       	com	r24
    1fac:	70 95       	com	r23
    1fae:	61 95       	neg	r22
    1fb0:	7f 4f       	sbci	r23, 0xFF	; 255
    1fb2:	8f 4f       	sbci	r24, 0xFF	; 255
    1fb4:	9f 4f       	sbci	r25, 0xFF	; 255
    1fb6:	f0 68       	ori	r31, 0x80	; 128
    1fb8:	3f 2e       	mov	r3, r31
    1fba:	2a e0       	ldi	r18, 0x0A	; 10
    1fbc:	30 e0       	ldi	r19, 0x00	; 0
    1fbe:	a3 01       	movw	r20, r6
    1fc0:	0e 94 07 11 	call	0x220e	; 0x220e <__ultoa_invert>
    1fc4:	88 2e       	mov	r8, r24
    1fc6:	86 18       	sub	r8, r6
    1fc8:	45 c0       	rjmp	.+138    	; 0x2054 <vfprintf+0x2ac>
    1fca:	85 37       	cpi	r24, 0x75	; 117
    1fcc:	31 f4       	brne	.+12     	; 0x1fda <vfprintf+0x232>
    1fce:	23 2d       	mov	r18, r3
    1fd0:	2f 7e       	andi	r18, 0xEF	; 239
    1fd2:	b2 2e       	mov	r11, r18
    1fd4:	2a e0       	ldi	r18, 0x0A	; 10
    1fd6:	30 e0       	ldi	r19, 0x00	; 0
    1fd8:	25 c0       	rjmp	.+74     	; 0x2024 <vfprintf+0x27c>
    1fda:	93 2d       	mov	r25, r3
    1fdc:	99 7f       	andi	r25, 0xF9	; 249
    1fde:	b9 2e       	mov	r11, r25
    1fe0:	8f 36       	cpi	r24, 0x6F	; 111
    1fe2:	c1 f0       	breq	.+48     	; 0x2014 <vfprintf+0x26c>
    1fe4:	18 f4       	brcc	.+6      	; 0x1fec <vfprintf+0x244>
    1fe6:	88 35       	cpi	r24, 0x58	; 88
    1fe8:	79 f0       	breq	.+30     	; 0x2008 <vfprintf+0x260>
    1fea:	b5 c0       	rjmp	.+362    	; 0x2156 <vfprintf+0x3ae>
    1fec:	80 37       	cpi	r24, 0x70	; 112
    1fee:	19 f0       	breq	.+6      	; 0x1ff6 <vfprintf+0x24e>
    1ff0:	88 37       	cpi	r24, 0x78	; 120
    1ff2:	21 f0       	breq	.+8      	; 0x1ffc <vfprintf+0x254>
    1ff4:	b0 c0       	rjmp	.+352    	; 0x2156 <vfprintf+0x3ae>
    1ff6:	e9 2f       	mov	r30, r25
    1ff8:	e0 61       	ori	r30, 0x10	; 16
    1ffa:	be 2e       	mov	r11, r30
    1ffc:	b4 fe       	sbrs	r11, 4
    1ffe:	0d c0       	rjmp	.+26     	; 0x201a <vfprintf+0x272>
    2000:	fb 2d       	mov	r31, r11
    2002:	f4 60       	ori	r31, 0x04	; 4
    2004:	bf 2e       	mov	r11, r31
    2006:	09 c0       	rjmp	.+18     	; 0x201a <vfprintf+0x272>
    2008:	34 fe       	sbrs	r3, 4
    200a:	0a c0       	rjmp	.+20     	; 0x2020 <vfprintf+0x278>
    200c:	29 2f       	mov	r18, r25
    200e:	26 60       	ori	r18, 0x06	; 6
    2010:	b2 2e       	mov	r11, r18
    2012:	06 c0       	rjmp	.+12     	; 0x2020 <vfprintf+0x278>
    2014:	28 e0       	ldi	r18, 0x08	; 8
    2016:	30 e0       	ldi	r19, 0x00	; 0
    2018:	05 c0       	rjmp	.+10     	; 0x2024 <vfprintf+0x27c>
    201a:	20 e1       	ldi	r18, 0x10	; 16
    201c:	30 e0       	ldi	r19, 0x00	; 0
    201e:	02 c0       	rjmp	.+4      	; 0x2024 <vfprintf+0x27c>
    2020:	20 e1       	ldi	r18, 0x10	; 16
    2022:	32 e0       	ldi	r19, 0x02	; 2
    2024:	f8 01       	movw	r30, r16
    2026:	b7 fe       	sbrs	r11, 7
    2028:	07 c0       	rjmp	.+14     	; 0x2038 <vfprintf+0x290>
    202a:	60 81       	ld	r22, Z
    202c:	71 81       	ldd	r23, Z+1	; 0x01
    202e:	82 81       	ldd	r24, Z+2	; 0x02
    2030:	93 81       	ldd	r25, Z+3	; 0x03
    2032:	0c 5f       	subi	r16, 0xFC	; 252
    2034:	1f 4f       	sbci	r17, 0xFF	; 255
    2036:	06 c0       	rjmp	.+12     	; 0x2044 <vfprintf+0x29c>
    2038:	60 81       	ld	r22, Z
    203a:	71 81       	ldd	r23, Z+1	; 0x01
    203c:	80 e0       	ldi	r24, 0x00	; 0
    203e:	90 e0       	ldi	r25, 0x00	; 0
    2040:	0e 5f       	subi	r16, 0xFE	; 254
    2042:	1f 4f       	sbci	r17, 0xFF	; 255
    2044:	a3 01       	movw	r20, r6
    2046:	0e 94 07 11 	call	0x220e	; 0x220e <__ultoa_invert>
    204a:	88 2e       	mov	r8, r24
    204c:	86 18       	sub	r8, r6
    204e:	fb 2d       	mov	r31, r11
    2050:	ff 77       	andi	r31, 0x7F	; 127
    2052:	3f 2e       	mov	r3, r31
    2054:	36 fe       	sbrs	r3, 6
    2056:	0d c0       	rjmp	.+26     	; 0x2072 <vfprintf+0x2ca>
    2058:	23 2d       	mov	r18, r3
    205a:	2e 7f       	andi	r18, 0xFE	; 254
    205c:	a2 2e       	mov	r10, r18
    205e:	89 14       	cp	r8, r9
    2060:	58 f4       	brcc	.+22     	; 0x2078 <vfprintf+0x2d0>
    2062:	34 fe       	sbrs	r3, 4
    2064:	0b c0       	rjmp	.+22     	; 0x207c <vfprintf+0x2d4>
    2066:	32 fc       	sbrc	r3, 2
    2068:	09 c0       	rjmp	.+18     	; 0x207c <vfprintf+0x2d4>
    206a:	83 2d       	mov	r24, r3
    206c:	8e 7e       	andi	r24, 0xEE	; 238
    206e:	a8 2e       	mov	r10, r24
    2070:	05 c0       	rjmp	.+10     	; 0x207c <vfprintf+0x2d4>
    2072:	b8 2c       	mov	r11, r8
    2074:	a3 2c       	mov	r10, r3
    2076:	03 c0       	rjmp	.+6      	; 0x207e <vfprintf+0x2d6>
    2078:	b8 2c       	mov	r11, r8
    207a:	01 c0       	rjmp	.+2      	; 0x207e <vfprintf+0x2d6>
    207c:	b9 2c       	mov	r11, r9
    207e:	a4 fe       	sbrs	r10, 4
    2080:	0f c0       	rjmp	.+30     	; 0x20a0 <vfprintf+0x2f8>
    2082:	fe 01       	movw	r30, r28
    2084:	e8 0d       	add	r30, r8
    2086:	f1 1d       	adc	r31, r1
    2088:	80 81       	ld	r24, Z
    208a:	80 33       	cpi	r24, 0x30	; 48
    208c:	21 f4       	brne	.+8      	; 0x2096 <vfprintf+0x2ee>
    208e:	9a 2d       	mov	r25, r10
    2090:	99 7e       	andi	r25, 0xE9	; 233
    2092:	a9 2e       	mov	r10, r25
    2094:	09 c0       	rjmp	.+18     	; 0x20a8 <vfprintf+0x300>
    2096:	a2 fe       	sbrs	r10, 2
    2098:	06 c0       	rjmp	.+12     	; 0x20a6 <vfprintf+0x2fe>
    209a:	b3 94       	inc	r11
    209c:	b3 94       	inc	r11
    209e:	04 c0       	rjmp	.+8      	; 0x20a8 <vfprintf+0x300>
    20a0:	8a 2d       	mov	r24, r10
    20a2:	86 78       	andi	r24, 0x86	; 134
    20a4:	09 f0       	breq	.+2      	; 0x20a8 <vfprintf+0x300>
    20a6:	b3 94       	inc	r11
    20a8:	a3 fc       	sbrc	r10, 3
    20aa:	11 c0       	rjmp	.+34     	; 0x20ce <vfprintf+0x326>
    20ac:	a0 fe       	sbrs	r10, 0
    20ae:	06 c0       	rjmp	.+12     	; 0x20bc <vfprintf+0x314>
    20b0:	b2 14       	cp	r11, r2
    20b2:	88 f4       	brcc	.+34     	; 0x20d6 <vfprintf+0x32e>
    20b4:	28 0c       	add	r2, r8
    20b6:	92 2c       	mov	r9, r2
    20b8:	9b 18       	sub	r9, r11
    20ba:	0e c0       	rjmp	.+28     	; 0x20d8 <vfprintf+0x330>
    20bc:	b2 14       	cp	r11, r2
    20be:	60 f4       	brcc	.+24     	; 0x20d8 <vfprintf+0x330>
    20c0:	b6 01       	movw	r22, r12
    20c2:	80 e2       	ldi	r24, 0x20	; 32
    20c4:	90 e0       	ldi	r25, 0x00	; 0
    20c6:	0e 94 cb 10 	call	0x2196	; 0x2196 <fputc>
    20ca:	b3 94       	inc	r11
    20cc:	f7 cf       	rjmp	.-18     	; 0x20bc <vfprintf+0x314>
    20ce:	b2 14       	cp	r11, r2
    20d0:	18 f4       	brcc	.+6      	; 0x20d8 <vfprintf+0x330>
    20d2:	2b 18       	sub	r2, r11
    20d4:	02 c0       	rjmp	.+4      	; 0x20da <vfprintf+0x332>
    20d6:	98 2c       	mov	r9, r8
    20d8:	21 2c       	mov	r2, r1
    20da:	a4 fe       	sbrs	r10, 4
    20dc:	10 c0       	rjmp	.+32     	; 0x20fe <vfprintf+0x356>
    20de:	b6 01       	movw	r22, r12
    20e0:	80 e3       	ldi	r24, 0x30	; 48
    20e2:	90 e0       	ldi	r25, 0x00	; 0
    20e4:	0e 94 cb 10 	call	0x2196	; 0x2196 <fputc>
    20e8:	a2 fe       	sbrs	r10, 2
    20ea:	17 c0       	rjmp	.+46     	; 0x211a <vfprintf+0x372>
    20ec:	a1 fc       	sbrc	r10, 1
    20ee:	03 c0       	rjmp	.+6      	; 0x20f6 <vfprintf+0x34e>
    20f0:	88 e7       	ldi	r24, 0x78	; 120
    20f2:	90 e0       	ldi	r25, 0x00	; 0
    20f4:	02 c0       	rjmp	.+4      	; 0x20fa <vfprintf+0x352>
    20f6:	88 e5       	ldi	r24, 0x58	; 88
    20f8:	90 e0       	ldi	r25, 0x00	; 0
    20fa:	b6 01       	movw	r22, r12
    20fc:	0c c0       	rjmp	.+24     	; 0x2116 <vfprintf+0x36e>
    20fe:	8a 2d       	mov	r24, r10
    2100:	86 78       	andi	r24, 0x86	; 134
    2102:	59 f0       	breq	.+22     	; 0x211a <vfprintf+0x372>
    2104:	a1 fe       	sbrs	r10, 1
    2106:	02 c0       	rjmp	.+4      	; 0x210c <vfprintf+0x364>
    2108:	8b e2       	ldi	r24, 0x2B	; 43
    210a:	01 c0       	rjmp	.+2      	; 0x210e <vfprintf+0x366>
    210c:	80 e2       	ldi	r24, 0x20	; 32
    210e:	a7 fc       	sbrc	r10, 7
    2110:	8d e2       	ldi	r24, 0x2D	; 45
    2112:	b6 01       	movw	r22, r12
    2114:	90 e0       	ldi	r25, 0x00	; 0
    2116:	0e 94 cb 10 	call	0x2196	; 0x2196 <fputc>
    211a:	89 14       	cp	r8, r9
    211c:	38 f4       	brcc	.+14     	; 0x212c <vfprintf+0x384>
    211e:	b6 01       	movw	r22, r12
    2120:	80 e3       	ldi	r24, 0x30	; 48
    2122:	90 e0       	ldi	r25, 0x00	; 0
    2124:	0e 94 cb 10 	call	0x2196	; 0x2196 <fputc>
    2128:	9a 94       	dec	r9
    212a:	f7 cf       	rjmp	.-18     	; 0x211a <vfprintf+0x372>
    212c:	8a 94       	dec	r8
    212e:	f3 01       	movw	r30, r6
    2130:	e8 0d       	add	r30, r8
    2132:	f1 1d       	adc	r31, r1
    2134:	80 81       	ld	r24, Z
    2136:	b6 01       	movw	r22, r12
    2138:	90 e0       	ldi	r25, 0x00	; 0
    213a:	0e 94 cb 10 	call	0x2196	; 0x2196 <fputc>
    213e:	81 10       	cpse	r8, r1
    2140:	f5 cf       	rjmp	.-22     	; 0x212c <vfprintf+0x384>
    2142:	22 20       	and	r2, r2
    2144:	09 f4       	brne	.+2      	; 0x2148 <vfprintf+0x3a0>
    2146:	42 ce       	rjmp	.-892    	; 0x1dcc <vfprintf+0x24>
    2148:	b6 01       	movw	r22, r12
    214a:	80 e2       	ldi	r24, 0x20	; 32
    214c:	90 e0       	ldi	r25, 0x00	; 0
    214e:	0e 94 cb 10 	call	0x2196	; 0x2196 <fputc>
    2152:	2a 94       	dec	r2
    2154:	f6 cf       	rjmp	.-20     	; 0x2142 <vfprintf+0x39a>
    2156:	f6 01       	movw	r30, r12
    2158:	86 81       	ldd	r24, Z+6	; 0x06
    215a:	97 81       	ldd	r25, Z+7	; 0x07
    215c:	02 c0       	rjmp	.+4      	; 0x2162 <vfprintf+0x3ba>
    215e:	8f ef       	ldi	r24, 0xFF	; 255
    2160:	9f ef       	ldi	r25, 0xFF	; 255
    2162:	2b 96       	adiw	r28, 0x0b	; 11
    2164:	e2 e1       	ldi	r30, 0x12	; 18
    2166:	0c 94 81 11 	jmp	0x2302	; 0x2302 <__epilogue_restores__>

0000216a <strnlen_P>:
    216a:	fc 01       	movw	r30, r24
    216c:	05 90       	lpm	r0, Z+
    216e:	61 50       	subi	r22, 0x01	; 1
    2170:	70 40       	sbci	r23, 0x00	; 0
    2172:	01 10       	cpse	r0, r1
    2174:	d8 f7       	brcc	.-10     	; 0x216c <strnlen_P+0x2>
    2176:	80 95       	com	r24
    2178:	90 95       	com	r25
    217a:	8e 0f       	add	r24, r30
    217c:	9f 1f       	adc	r25, r31
    217e:	08 95       	ret

00002180 <strnlen>:
    2180:	fc 01       	movw	r30, r24
    2182:	61 50       	subi	r22, 0x01	; 1
    2184:	70 40       	sbci	r23, 0x00	; 0
    2186:	01 90       	ld	r0, Z+
    2188:	01 10       	cpse	r0, r1
    218a:	d8 f7       	brcc	.-10     	; 0x2182 <strnlen+0x2>
    218c:	80 95       	com	r24
    218e:	90 95       	com	r25
    2190:	8e 0f       	add	r24, r30
    2192:	9f 1f       	adc	r25, r31
    2194:	08 95       	ret

00002196 <fputc>:
    2196:	0f 93       	push	r16
    2198:	1f 93       	push	r17
    219a:	cf 93       	push	r28
    219c:	df 93       	push	r29
    219e:	fb 01       	movw	r30, r22
    21a0:	23 81       	ldd	r18, Z+3	; 0x03
    21a2:	21 fd       	sbrc	r18, 1
    21a4:	03 c0       	rjmp	.+6      	; 0x21ac <fputc+0x16>
    21a6:	8f ef       	ldi	r24, 0xFF	; 255
    21a8:	9f ef       	ldi	r25, 0xFF	; 255
    21aa:	2c c0       	rjmp	.+88     	; 0x2204 <fputc+0x6e>
    21ac:	22 ff       	sbrs	r18, 2
    21ae:	16 c0       	rjmp	.+44     	; 0x21dc <fputc+0x46>
    21b0:	46 81       	ldd	r20, Z+6	; 0x06
    21b2:	57 81       	ldd	r21, Z+7	; 0x07
    21b4:	24 81       	ldd	r18, Z+4	; 0x04
    21b6:	35 81       	ldd	r19, Z+5	; 0x05
    21b8:	42 17       	cp	r20, r18
    21ba:	53 07       	cpc	r21, r19
    21bc:	44 f4       	brge	.+16     	; 0x21ce <fputc+0x38>
    21be:	a0 81       	ld	r26, Z
    21c0:	b1 81       	ldd	r27, Z+1	; 0x01
    21c2:	9d 01       	movw	r18, r26
    21c4:	2f 5f       	subi	r18, 0xFF	; 255
    21c6:	3f 4f       	sbci	r19, 0xFF	; 255
    21c8:	31 83       	std	Z+1, r19	; 0x01
    21ca:	20 83       	st	Z, r18
    21cc:	8c 93       	st	X, r24
    21ce:	26 81       	ldd	r18, Z+6	; 0x06
    21d0:	37 81       	ldd	r19, Z+7	; 0x07
    21d2:	2f 5f       	subi	r18, 0xFF	; 255
    21d4:	3f 4f       	sbci	r19, 0xFF	; 255
    21d6:	37 83       	std	Z+7, r19	; 0x07
    21d8:	26 83       	std	Z+6, r18	; 0x06
    21da:	14 c0       	rjmp	.+40     	; 0x2204 <fputc+0x6e>
    21dc:	8b 01       	movw	r16, r22
    21de:	ec 01       	movw	r28, r24
    21e0:	fb 01       	movw	r30, r22
    21e2:	00 84       	ldd	r0, Z+8	; 0x08
    21e4:	f1 85       	ldd	r31, Z+9	; 0x09
    21e6:	e0 2d       	mov	r30, r0
    21e8:	09 95       	icall
    21ea:	89 2b       	or	r24, r25
    21ec:	e1 f6       	brne	.-72     	; 0x21a6 <fputc+0x10>
    21ee:	d8 01       	movw	r26, r16
    21f0:	16 96       	adiw	r26, 0x06	; 6
    21f2:	8d 91       	ld	r24, X+
    21f4:	9c 91       	ld	r25, X
    21f6:	17 97       	sbiw	r26, 0x07	; 7
    21f8:	01 96       	adiw	r24, 0x01	; 1
    21fa:	17 96       	adiw	r26, 0x07	; 7
    21fc:	9c 93       	st	X, r25
    21fe:	8e 93       	st	-X, r24
    2200:	16 97       	sbiw	r26, 0x06	; 6
    2202:	ce 01       	movw	r24, r28
    2204:	df 91       	pop	r29
    2206:	cf 91       	pop	r28
    2208:	1f 91       	pop	r17
    220a:	0f 91       	pop	r16
    220c:	08 95       	ret

0000220e <__ultoa_invert>:
    220e:	fa 01       	movw	r30, r20
    2210:	aa 27       	eor	r26, r26
    2212:	28 30       	cpi	r18, 0x08	; 8
    2214:	51 f1       	breq	.+84     	; 0x226a <__ultoa_invert+0x5c>
    2216:	20 31       	cpi	r18, 0x10	; 16
    2218:	81 f1       	breq	.+96     	; 0x227a <__ultoa_invert+0x6c>
    221a:	e8 94       	clt
    221c:	6f 93       	push	r22
    221e:	6e 7f       	andi	r22, 0xFE	; 254
    2220:	6e 5f       	subi	r22, 0xFE	; 254
    2222:	7f 4f       	sbci	r23, 0xFF	; 255
    2224:	8f 4f       	sbci	r24, 0xFF	; 255
    2226:	9f 4f       	sbci	r25, 0xFF	; 255
    2228:	af 4f       	sbci	r26, 0xFF	; 255
    222a:	b1 e0       	ldi	r27, 0x01	; 1
    222c:	3e d0       	rcall	.+124    	; 0x22aa <__ultoa_invert+0x9c>
    222e:	b4 e0       	ldi	r27, 0x04	; 4
    2230:	3c d0       	rcall	.+120    	; 0x22aa <__ultoa_invert+0x9c>
    2232:	67 0f       	add	r22, r23
    2234:	78 1f       	adc	r23, r24
    2236:	89 1f       	adc	r24, r25
    2238:	9a 1f       	adc	r25, r26
    223a:	a1 1d       	adc	r26, r1
    223c:	68 0f       	add	r22, r24
    223e:	79 1f       	adc	r23, r25
    2240:	8a 1f       	adc	r24, r26
    2242:	91 1d       	adc	r25, r1
    2244:	a1 1d       	adc	r26, r1
    2246:	6a 0f       	add	r22, r26
    2248:	71 1d       	adc	r23, r1
    224a:	81 1d       	adc	r24, r1
    224c:	91 1d       	adc	r25, r1
    224e:	a1 1d       	adc	r26, r1
    2250:	20 d0       	rcall	.+64     	; 0x2292 <__ultoa_invert+0x84>
    2252:	09 f4       	brne	.+2      	; 0x2256 <__ultoa_invert+0x48>
    2254:	68 94       	set
    2256:	3f 91       	pop	r19
    2258:	2a e0       	ldi	r18, 0x0A	; 10
    225a:	26 9f       	mul	r18, r22
    225c:	11 24       	eor	r1, r1
    225e:	30 19       	sub	r19, r0
    2260:	30 5d       	subi	r19, 0xD0	; 208
    2262:	31 93       	st	Z+, r19
    2264:	de f6       	brtc	.-74     	; 0x221c <__ultoa_invert+0xe>
    2266:	cf 01       	movw	r24, r30
    2268:	08 95       	ret
    226a:	46 2f       	mov	r20, r22
    226c:	47 70       	andi	r20, 0x07	; 7
    226e:	40 5d       	subi	r20, 0xD0	; 208
    2270:	41 93       	st	Z+, r20
    2272:	b3 e0       	ldi	r27, 0x03	; 3
    2274:	0f d0       	rcall	.+30     	; 0x2294 <__ultoa_invert+0x86>
    2276:	c9 f7       	brne	.-14     	; 0x226a <__ultoa_invert+0x5c>
    2278:	f6 cf       	rjmp	.-20     	; 0x2266 <__ultoa_invert+0x58>
    227a:	46 2f       	mov	r20, r22
    227c:	4f 70       	andi	r20, 0x0F	; 15
    227e:	40 5d       	subi	r20, 0xD0	; 208
    2280:	4a 33       	cpi	r20, 0x3A	; 58
    2282:	18 f0       	brcs	.+6      	; 0x228a <__ultoa_invert+0x7c>
    2284:	49 5d       	subi	r20, 0xD9	; 217
    2286:	31 fd       	sbrc	r19, 1
    2288:	40 52       	subi	r20, 0x20	; 32
    228a:	41 93       	st	Z+, r20
    228c:	02 d0       	rcall	.+4      	; 0x2292 <__ultoa_invert+0x84>
    228e:	a9 f7       	brne	.-22     	; 0x227a <__ultoa_invert+0x6c>
    2290:	ea cf       	rjmp	.-44     	; 0x2266 <__ultoa_invert+0x58>
    2292:	b4 e0       	ldi	r27, 0x04	; 4
    2294:	a6 95       	lsr	r26
    2296:	97 95       	ror	r25
    2298:	87 95       	ror	r24
    229a:	77 95       	ror	r23
    229c:	67 95       	ror	r22
    229e:	ba 95       	dec	r27
    22a0:	c9 f7       	brne	.-14     	; 0x2294 <__ultoa_invert+0x86>
    22a2:	00 97       	sbiw	r24, 0x00	; 0
    22a4:	61 05       	cpc	r22, r1
    22a6:	71 05       	cpc	r23, r1
    22a8:	08 95       	ret
    22aa:	9b 01       	movw	r18, r22
    22ac:	ac 01       	movw	r20, r24
    22ae:	0a 2e       	mov	r0, r26
    22b0:	06 94       	lsr	r0
    22b2:	57 95       	ror	r21
    22b4:	47 95       	ror	r20
    22b6:	37 95       	ror	r19
    22b8:	27 95       	ror	r18
    22ba:	ba 95       	dec	r27
    22bc:	c9 f7       	brne	.-14     	; 0x22b0 <__ultoa_invert+0xa2>
    22be:	62 0f       	add	r22, r18
    22c0:	73 1f       	adc	r23, r19
    22c2:	84 1f       	adc	r24, r20
    22c4:	95 1f       	adc	r25, r21
    22c6:	a0 1d       	adc	r26, r0
    22c8:	08 95       	ret

000022ca <__prologue_saves__>:
    22ca:	2f 92       	push	r2
    22cc:	3f 92       	push	r3
    22ce:	4f 92       	push	r4
    22d0:	5f 92       	push	r5
    22d2:	6f 92       	push	r6
    22d4:	7f 92       	push	r7
    22d6:	8f 92       	push	r8
    22d8:	9f 92       	push	r9
    22da:	af 92       	push	r10
    22dc:	bf 92       	push	r11
    22de:	cf 92       	push	r12
    22e0:	df 92       	push	r13
    22e2:	ef 92       	push	r14
    22e4:	ff 92       	push	r15
    22e6:	0f 93       	push	r16
    22e8:	1f 93       	push	r17
    22ea:	cf 93       	push	r28
    22ec:	df 93       	push	r29
    22ee:	cd b7       	in	r28, 0x3d	; 61
    22f0:	de b7       	in	r29, 0x3e	; 62
    22f2:	ca 1b       	sub	r28, r26
    22f4:	db 0b       	sbc	r29, r27
    22f6:	0f b6       	in	r0, 0x3f	; 63
    22f8:	f8 94       	cli
    22fa:	de bf       	out	0x3e, r29	; 62
    22fc:	0f be       	out	0x3f, r0	; 63
    22fe:	cd bf       	out	0x3d, r28	; 61
    2300:	09 94       	ijmp

00002302 <__epilogue_restores__>:
    2302:	2a 88       	ldd	r2, Y+18	; 0x12
    2304:	39 88       	ldd	r3, Y+17	; 0x11
    2306:	48 88       	ldd	r4, Y+16	; 0x10
    2308:	5f 84       	ldd	r5, Y+15	; 0x0f
    230a:	6e 84       	ldd	r6, Y+14	; 0x0e
    230c:	7d 84       	ldd	r7, Y+13	; 0x0d
    230e:	8c 84       	ldd	r8, Y+12	; 0x0c
    2310:	9b 84       	ldd	r9, Y+11	; 0x0b
    2312:	aa 84       	ldd	r10, Y+10	; 0x0a
    2314:	b9 84       	ldd	r11, Y+9	; 0x09
    2316:	c8 84       	ldd	r12, Y+8	; 0x08
    2318:	df 80       	ldd	r13, Y+7	; 0x07
    231a:	ee 80       	ldd	r14, Y+6	; 0x06
    231c:	fd 80       	ldd	r15, Y+5	; 0x05
    231e:	0c 81       	ldd	r16, Y+4	; 0x04
    2320:	1b 81       	ldd	r17, Y+3	; 0x03
    2322:	aa 81       	ldd	r26, Y+2	; 0x02
    2324:	b9 81       	ldd	r27, Y+1	; 0x01
    2326:	ce 0f       	add	r28, r30
    2328:	d1 1d       	adc	r29, r1
    232a:	0f b6       	in	r0, 0x3f	; 63
    232c:	f8 94       	cli
    232e:	de bf       	out	0x3e, r29	; 62
    2330:	0f be       	out	0x3f, r0	; 63
    2332:	cd bf       	out	0x3d, r28	; 61
    2334:	ed 01       	movw	r28, r26
    2336:	08 95       	ret

00002338 <_exit>:
    2338:	f8 94       	cli

0000233a <__stop_program>:
    233a:	ff cf       	rjmp	.-2      	; 0x233a <__stop_program>
